mads 2.1.7
Source: client.asm
     1 				; Atari XEX header is generated automatically by MADS with -o:*.xex
     2
     3 				        icl 'vbxe_const.asm'
Source: vbxe_const.asm
     1 				; ============================================================================
     2 				; VBXE Constants, Register Offsets, and Macros
     3 				; For VBXE Web Browser - Atari XE/XL
     4 				; Assembler: MADS
     5 				; ============================================================================
     6
     7 				; ----------------------------------------------------------------------------
     8 				; VBXE Register Offsets (from base $D640 or $D740)
     9 				; ----------------------------------------------------------------------------
    10
    11 = 0040			VBXE_VCTL      = $40   ; VIDEO_CONTROL (R/W)
    12 = 0040			VBXE_CORE_VER  = $40   ; CORE_VERSION (R) - same offset, read = version
    13
    14 = 0041			VBXE_XDL_ADR0  = $41   ; XDL address low byte (W)
    15 = 0042			VBXE_XDL_ADR1  = $42   ; XDL address mid byte (W) — not used (INY from ADR0), kept for HW reference
    16 = 0043			VBXE_XDL_ADR2  = $43   ; XDL address high byte (W) — not used (INY from ADR0), kept for HW reference
    17
    18 = 0044			VBXE_CSEL      = $44   ; Color Select (index 0-255)
    19 = 0045			VBXE_PSEL      = $45   ; Palette Select (0=playfield, 1=overlay)
    20 = 0046			VBXE_CR        = $46   ; Color Red component
    21 = 0047			VBXE_CG        = $47   ; Color Green component
    22 = 0048			VBXE_CB        = $48   ; Color Blue component
    23
    24 = 0050			VBXE_BL_ADR0   = $50   ; BCB address low
    25 = 0053			VBXE_BLITTER   = $53   ; Write $01=start, Read: non-zero=busy
    26
    27 = 005D			VBXE_MEMAC_B   = $5D   ; MEMAC B control (window $4000-$7FFF)
    28
    29 				; VIDEO_CONTROL bits
    30 = 0001			VC_XDL_ENABLED = $01
    31 = 0002			VC_XCOLOR      = $02
    32
    33 = 0010			FX_CORE_VER    = $10   ; Expected CORE_VERSION for FX core
    34
    35 				; ----------------------------------------------------------------------------
    36 				; XDL Control Word Flags
    37 				; ----------------------------------------------------------------------------
    38 = 0001			XDLC_TMON     = $0001
    39 = 0002			XDLC_GMON     = $0002
    40 = 0004			XDLC_OVOFF    = $0004
    41 = 0010			XDLC_MAPOFF   = $0010
    42 = 0020			XDLC_RPTL     = $0020
    43 = 0040			XDLC_OVADR    = $0040
    44 = 0100			XDLC_CHBASE   = $0100
    45 = 0800			XDLC_OVATT    = $0800
    46 = 8000			XDLC_END      = $8000
    47
    48 				; ----------------------------------------------------------------------------
    49 				; VBXE VRAM Layout
    50 				; ----------------------------------------------------------------------------
    51 = 8000			VRAM_IMG_BASE  = $8000  ; Image viewer: pixel data start (fits 320x240 @8bpp within 128KB VRAM)
    52 = 0000			VRAM_SCREEN    = $0000  ; Screen: SCR_ROWS*160 bytes (4800 for 30 rows)
    53 = 1300			VRAM_BCB       = $1300  ; BCB blocks (after screen)
    54 = 1380			VRAM_PATTERN   = $1380  ; Fill pattern (2 bytes)
    55 = 1400			VRAM_XDL       = $1400  ; XDL
    56 = 2000			VRAM_FONT      = $2000  ; Font: 256*8 = 2048 bytes
    57 = 0005			PAGE_BUF_BANK  = 5      ; VRAM $14000 >> 14 = 5
    58
    59 				; CPU addresses when MEMAC B bank 0 active ($4000 + VRAM offset)
    60 = 4000			MEMB_BASE      = $4000
    61 = 4000			MEMB_SCREEN    = $4000
    62 = 5300			MEMB_BCB       = $5300
    63 = 5380			MEMB_PATTERN   = $5380
    64 = 5400			MEMB_XDL       = $5400
    65 = 6000			MEMB_FONT      = $6000
    66
    67 				; Screen dimensions
    68 = 0050			SCR_COLS       = 80
    69 = 001D			SCR_ROWS       = 29
    70 = 00A0			SCR_STRIDE     = 160    ; 80 chars + 80 attrs
    71 = 0004			CHBASE_VAL     = 4      ; VRAM_FONT / $800
    72
    73 				; Content area (derived from SCR_ROWS)
    74 = 0002			CONTENT_TOP    = 2
    75 = 001A			CONTENT_BOT    = SCR_ROWS - 3
    76 = 0019			CONTENT_ROWS   = SCR_ROWS - 4
    77 = 0000			URL_ROW        = 0
    78 = 0001			TITLE_ROW      = 1
    79 = 001B			STATUS_ROW     = SCR_ROWS - 2
    80
    81 				; ----------------------------------------------------------------------------
    82 				; Color Palette Indices (overlay palette 1)
    83 				; ----------------------------------------------------------------------------
    84 = 0000			COL_BLACK      = 0
    85 = 0001			COL_WHITE      = 1
    86 = 0002			COL_BLUE       = 2
    87 = 0003			COL_ORANGE     = 3
    88 = 0004			COL_GREEN      = 4
    89 = 0005			COL_RED        = 5
    90 = 0006			COL_GRAY       = 6
    91 = 0007			COL_YELLOW     = 7
    92 = 000C			COL_CYAN       = 12   ; h4 headings
    93 = 000D			COL_PINK       = 13   ; underline
    94 = 000E			COL_LTGRAY     = 14   ; h5/h6 headings, sup/sub
    95 = 000F			COL_LIME       = 15   ; sub
    96
    97 = 0001			ATTR_NORMAL    = COL_WHITE
    98 = 0002			ATTR_LINK      = COL_BLUE     ; basic link color (for UI elements)
    99 = 0020			ATTR_LINK_BASE = $20          ; link attrs: $20+link_num (palette $20-$5F = blue)
   100 = 0003			ATTR_HEADING   = COL_ORANGE
   101 = 0007			ATTR_H1        = COL_YELLOW
   102 = 0003			ATTR_H2        = COL_ORANGE
   103 = 0004			ATTR_H3        = COL_GREEN
   104 = 000C			ATTR_H4        = COL_CYAN
   105 = 000E			ATTR_H5        = COL_LTGRAY
   106 = 000E			ATTR_H6        = COL_LTGRAY
   107 = 0005			ATTR_ERROR     = COL_RED
   108 = 0006			ATTR_DECOR     = COL_GRAY
   109 = 000D			ATTR_UNDERLINE = COL_PINK
   110 = 0006			ATTR_SUP       = COL_GRAY
   111 = 000F			ATTR_SUB       = COL_LIME
   112
   113 				; ----------------------------------------------------------------------------
   114 				; Atari System Equates
   115 				; ----------------------------------------------------------------------------
   116 = 0012			RTCLOK     = $0012
   117 = 022F			SDMCTL     = $022F
   118 = 0279			STICK1     = $0279
   119 = 02F4			CHBAS      = $02F4
   120 = 02FC			CH         = $02FC
   121 = D400			DMACTL     = $D400
   122 = D000			HPOSP0     = $D000
   123 = D008			SIZEP0     = $D008
   124 = D012			COLPM0     = $D012
   125 = D010			STRIG0     = $D010
   126 = D011			STRIG1     = $D011
   127 = D01B			PRIOR      = $D01B
   128 = D01D			GRACTL     = $D01D
   129 = D407			PMBASE     = $D407
   130 = D300			PORTA      = $D300
   131 = 0010			POKMSK     = $0010
   132 = D20E			IRQEN      = $D20E
   133 = D202			AUDF2      = $D202
   134 = D203			AUDC2      = $D203
   135 = D208			AUDCTL     = $D208
   136 = D209			STIMER     = $D209
   137 = 0212			VTIMR2     = $0212
   138 = E459			SIOV       = $E459
   139 = E477			COLDSV     = $E477
   140 = D014			PAL        = $D014         ; PAL/NTSC flag ($01=PAL, other=NTSC)
   141
   142 				; SIO DCB
   143 = 0300			DDEVIC     = $0300
   144 = 0301			DUNIT      = $0301
   145 = 0302			DCOMND     = $0302
   146 = 0303			DSTATS     = $0303
   147 = 0304			DBUFLO     = $0304
   148 = 0305			DBUFHI     = $0305
   149 = 0306			DTIMLO     = $0306
   150 = 0308			DBYTLO     = $0308
   151 = 0309			DBYTHI     = $0309
   152 = 030A			DAUX1      = $030A
   153 = 030B			DAUX2      = $030B
   154
   155 = 02EA			DVSTAT     = $02EA
   156
   157 				; Keyboard codes
   158 = 000C			KEY_RETURN = $0C
   159 = 0021			KEY_SPACE  = $21
   160 = 00FF			KEY_NONE   = $FF
   161 = 007F			ATASCII_TAB = $7F              ; TAB key via CIO K: (ATASCII)
   162 = 009B			ATASCII_RET = 155              ; Return via CIO K: (ATASCII)
   163
   164 = 0020			CH_SPACE   = $20
   165
   166 				; ----------------------------------------------------------------------------
   167 				; Zero-Page Variables ($80-$AF)
   168 				; ----------------------------------------------------------------------------
   169 = 0080			zp_vbxe_base  = $80   ; 2 bytes
   170 = 0082			zp_cursor_row = $82
   171 = 0083			zp_cursor_col = $83
   172 = 0084			zp_cur_attr   = $84
   173 = 0085			zp_scr_ptr    = $85   ; 2 bytes
   174 = 0087			zp_tmp_ptr    = $87   ; 2 bytes
   175 = 0089			zp_tmp_ptr2   = $89   ; 2 bytes
   176 = 008B			zp_tmp1       = $8B
   177 = 008C			zp_tmp2       = $8C
   178 = 008D			zp_tmp3       = $8D
   179
   180 = 008E			zp_parse_state = $8E
   181 = 008F			zp_tag_idx     = $8F
   182 = 0090			zp_attr_idx    = $90
   183 = 0091			zp_val_idx     = $91
   184 = 0092			zp_entity_idx  = $92
   185
   186 = 0093			zp_render_col  = $93
   187 = 0094			zp_render_row  = $94
   188 = 0095			zp_word_len    = $95
   189 = 0096			zp_indent      = $96
   190 = 0097			zp_in_link     = $97
   191 = 0098			zp_link_num    = $98
   192 				; $99-$9B free (removed: zp_in_heading, zp_in_list, zp_in_bold — write-only)
   193 = 009C			zp_in_skip     = $9C
   194 = 009D			zp_list_type   = $9D
   195 = 009E			zp_list_item   = $9E
   196
   197 = 009F			zp_fn_connected = $9F
   198 = 00A0			zp_fn_error    = $A0
   199 = 00A1			zp_fn_bytes_lo = $A1
   200 = 00A2			zp_fn_bytes_hi = $A2
   201 = 00A3			zp_rx_len      = $A3
   202
   203 = 00A4			zp_cur_link    = $A4
   204 = 00A5			zp_scroll_pos  = $A5   ; 2 bytes
   205 				; $A7-$A8 free (removed: zp_page_lines — write-only)
   206 = 00A9			zp_hist_ptr    = $A9   ; 1 byte - history stack index (0-7)
   207 				; $AA free (removed: zp_fn_got_data — never referenced)
   208 = 00AB			zp_img_ptr     = $AB   ; 2 bytes - image write pointer (MEMAC B window)
   209 = 00AD			zp_memb_shadow = $AD   ; MEMAC B shadow for NMI-safe restore
   210 = 00AE			zp_tirq_saved  = $AE   ; Timer IRQ: saved shadow value
   211 = 00AF			zp_vbi_saved   = $AF   ; VBI: saved shadow value
   212
   213 				; Page buffer pointers ($B8-$BB, after mouse $B0-$B7)
   214 = 00B8			zp_pb_wr_ptr   = $B8   ; 2B write pointer (MEMAC B window $4000-$7FFF)
   215 = 00BA			zp_pb_rd_ptr   = $BA   ; 2B read pointer
   216
   217 				; TAB navigation ($BC)
   218 = 00BC			zp_tab_link    = $BC   ; currently selected link via TAB ($FF = none)
   219
   220 				; ----------------------------------------------------------------------------
   221 				; Macros
   222 				; ----------------------------------------------------------------------------
   223
   224 				; MEMAC B macros with shadow variable for interrupt-safe restore.
   225 				; IMPORTANT: Code using these macros MUST be below $4000!
   226 				; When MEMAC B is active, $4000-$7FFF reads VRAM, not RAM.
   227 				; Interrupt handlers use stubs at page 6 to disable/restore MEMAC B.
   228 				memb_on .macro
   229 				        lda #$80+:1
   230 				        sta zp_memb_shadow     ; shadow FIRST (NMI-safe ordering)
   231 				        ldy #VBXE_MEMAC_B
   232 				        sta (zp_vbxe_base),y
   233 				        .endm
   234
   235 				memb_off .macro
   236 				        lda #0
   237 				        sta zp_memb_shadow     ; shadow FIRST (NMI-safe ordering)
   238 				        ldy #VBXE_MEMAC_B
   239 				        sta (zp_vbxe_base),y
   240 				        .endm
   241
   242 				; Show message on status bar: :1=color, :2=message address
   243 				; Expands to subroutine call (9 bytes) instead of inline (31 bytes)
   244 				status_msg .macro
   245 				        ldy #:1
   246 				        lda #<:2
   247 				        ldx #>:2
   248 				        jsr status_msg_sub
   249 				        .endm
   250
   251 				; Wait N frames (RTCLOK-based delay): :1=frame count
   252 				; Expands to subroutine call (5 bytes) instead of inline (13 bytes)
   253 				wait_frames .macro
   254 				        ldx #:1
   255 				        jsr wait_frames_sub
   256 				        .endm
   257
   258 				blit_start .macro
   259 				        ldy #VBXE_BL_ADR0
   260 				        lda #<:1
   261 				        sta (zp_vbxe_base),y
   262 				        iny
   263 				        lda #>:1
   264 				        sta (zp_vbxe_base),y
   265 				        iny
   266 				        lda #0
   267 				        sta (zp_vbxe_base),y
   268 				        iny
   269 				        lda #1
   270 				        sta (zp_vbxe_base),y
   271 				        .endm
   272
   273 				blit_wait .macro
   274 				        ldy #VBXE_BLITTER
   275 				?bw     lda (zp_vbxe_base),y
   276 				        bne ?bw
   277 				        .endm
     4
     5 = E456			CIOV    = $E456
     6 = 0342			ICCOM   = $0342
     7 = 0344			ICBAL   = $0344
     8 = 0345			ICBAH   = $0345
     9 = 0348			ICBLL   = $0348
    10 = 0349			ICBLH   = $0349
    11
    12 = 00F0			VIEW_TIMEOUT = 240
    13 = 0060			READ_LIMIT   = 96
    14 = 003A			KEY_D        = $3A
    15 = 00C8			DEMO_HEIGHT  = 200
    16 = 0014			DEMO_STAMP_SIZE = 20
    17 = 0010			ROOM_NAME_MAX = 16
    18 = 009F			DEMO_CURSOR_MAX_X = 159
    19 = 00C7			DEMO_CURSOR_MAX_Y = 199
    20 = 004C			DEMO_CURSOR_START_X = 76
    21 = 0060			DEMO_CURSOR_START_Y = 96
    22 = 0001			DEMO_CURSOR_COLOR = 1
    23 = 0010			DEMO_CURSOR_WIDTH = 16
    24 = 00A0			DEMO_POPUP_WIDTH = 160
    25 = 0050			DEMO_POPUP_WIDTH_LOGICAL = 80
    26 = 009E			DEMO_POPUP_INNER_WIDTH = 158
    27 = 000C			DEMO_POPUP_HEIGHT = 12
    28 = 000B			DEMO_POPUP_LAST_ROW = 11
    29 = 0050			DEMO_POPUP_MAX_X = 80
    30 = 00BC			DEMO_POPUP_MAX_Y = 188
    31 = 00FA			DEMO_POPUP_BORDER_COLOR = 250
    32 = 0018			DEMO_POPUP_FILL_COLOR = 24
    33 = 00FC			DEMO_POPUP_TEXT_COLOR = 252
    34 = 0013			DEMO_POPUP_TEXT_MAX = 19
    35
    36 = 0600			STUB_BASE      = $0600
    37 = 0611			STUB_TIRQ_EXIT = STUB_BASE+17
    38
    39 = 00B0			zp_demo_cursor_x = $B0
    40 = 00B1			zp_demo_cursor_y = $B1
    41 = 00B2			zp_demo_prev_x   = $B2
    42 = 00B3			zp_demo_prev_trig = $B3
    43 = 00B4			zp_mouse_dx      = $B4
    44 = 00B5			zp_mouse_dy      = $B5
    45 = 00B6			zp_demo_prev_y   = $B6
    46
    47 				        org $2000
    48
    49 				        icl 'client/boot.asm'
Source: boot.asm
     1 				main
     2 FFFF> 2000-3400> A9 22	        lda #$22
     3 2002 8D 2F 02		        sta SDMCTL
     4 2005 20 FA 20		        jsr clear_debug
     5 2008 20 D2 29		        jsr init_current_room_name
     6
     7 200B 20 5E 30		        jsr detect_vbxe
     8 200E 90 1A		        bcc no_vbxe
     9
    10 2010 A9 6F		        lda #<msg_loading_room
    11 2012 A2 35		        ldx #>msg_loading_room
    12 2014 A0 11		        ldy #msg_loading_room_end-msg_loading_room
    13 2016 20 43 31		        jsr print_record
    14
    15 2019			load_room
    16 2019 20 FA 20		        jsr clear_debug
    17 201C 20 40 28		        jsr copy_room_url_to_buffer
    18 201F 20 D1 2C		        jsr fetch_room_image
    19 2022 90 11		        bcc image_ok
    20 2024 20 7E 31		        jsr report_failure
    21 2027			fail_loop
    22 2027 4C 27 20		        jmp fail_loop
    23
    24 202A			no_vbxe
    25 202A A9 11		        lda #$11
    26 202C 8D 00 88		        sta debug_stage
    27 202F 20 7E 31		        jsr report_failure
    28 2032 4C 27 20		        jmp fail_loop
    29
    30 2035			image_ok
    31 2035 A9 00		        lda #0
    32 2037 8D 2F 02		        sta SDMCTL
    33 203A 20 8A 30		        jsr show_fullscreen
    34 203D AD 13 88		        lda demo_mode
    35 2040 F0 03		        beq room_image_loop
    36 2042 4C B3 20		        jmp demo_image_loop
    37
    38 2045			room_image_loop
    39 2045 A9 00		        lda #0
    40 2047 8D 18 88		        sta demo_input_active
    41 204A 20 92 21		        jsr demo_init_input
    42 204D 20 52 25		        jsr demo_draw_cursor
    43 2050			room_wait
    44 2050 20 98 29		        jsr wait_one_frame
    45 2053 20 68 22		        jsr demo_update_input
    46 2056 20 52 25		        jsr demo_draw_cursor
    47 2059 20 31 23		        jsr demo_poll_click
    48 205C 90 06		        bcc room_key_check
    49 205E 20 82 20		        jsr room_handle_click
    50 2061 4C 50 20		        jmp room_wait
    51 2064			room_key_check
    52 2064 AD FC 02		        lda CH
    53 2067 C9 FF		        cmp #KEY_NONE
    54 2069 F0 E5		        beq room_wait
    55 206B A9 FF		        lda #KEY_NONE
    56 206D 8D FC 02		        sta CH
    57 2070 A5 B6		        lda zp_demo_prev_y
    58 2072 C9 FF		        cmp #$FF
    59 2074 F0 09		        beq room_reload
    60 2076 20 CC 25		        jsr demo_restore_cursor
    61 2079 A9 FF		        lda #$FF
    62 207B 85 B2		        sta zp_demo_prev_x
    63 207D 85 B6		        sta zp_demo_prev_y
    64 207F			room_reload
    65 207F 4C 19 20		        jmp load_room
    66
    67 2082			room_handle_click
    68 2082 A5 B6		        lda zp_demo_prev_y
    69 2084 C9 FF		        cmp #$FF
    70 2086 F0 09		        beq room_click_send
    71 2088 20 CC 25		        jsr demo_restore_cursor
    72 208B A9 FF		        lda #$FF
    73 208D 85 B2		        sta zp_demo_prev_x
    74 208F 85 B6		        sta zp_demo_prev_y
    75 2091			room_click_send
    76 2091 20 48 23		        jsr demo_suspend_input_irq
    77 2094 20 5E 28		        jsr copy_click_url_to_buffer
    78 2097 20 EF 28		        jsr fetch_text_payload
    79 209A B0 03		        bcs room_click_resume
    80 209C 20 E7 29		        jsr room_process_click_response
    81 209F			room_click_resume
    82 209F 20 59 23		        jsr demo_resume_input_irq
    83 20A2 AD 35 88		        lda room_action_pending_reload
    84 20A5 F0 08		        beq room_click_done
    85 20A7 A9 00		        lda #0
    86 20A9 8D 35 88		        sta room_action_pending_reload
    87 20AC 4C 19 20		        jmp load_room
    88 20AF			room_click_done
    89 20AF 20 52 25		        jsr demo_draw_cursor
    90 20B2 60			        rts
    91
    92 20B3			demo_image_loop
    93 20B3 A9 00		        lda #0
    94 20B5 8D 18 88		        sta demo_input_active
    95 20B8 20 92 21		        jsr demo_init_input
    96 20BB 20 52 25		        jsr demo_draw_cursor
    97 20BE			demo_wait
    98 20BE 20 98 29		        jsr wait_one_frame
    99 20C1 20 68 22		        jsr demo_update_input
   100 20C4 20 52 25		        jsr demo_draw_cursor
   101 20C7 20 31 23		        jsr demo_poll_click
   102 20CA 90 06		        bcc demo_key_check
   103 20CC 20 72 23		        jsr demo_click_stamp
   104 20CF 4C BE 20		        jmp demo_wait
   105 20D2			demo_key_check
   106 20D2 AD FC 02		        lda CH
   107 20D5 C9 FF		        cmp #KEY_NONE
   108 20D7 F0 E5		        beq demo_wait
   109 20D9 C9 21		        cmp #KEY_SPACE
   110 20DB F0 0C		        beq demo_popup_key
   111 20DD C9 20		        cmp #CH_SPACE
   112 20DF F0 08		        beq demo_popup_key
   113 20E1 A9 FF		        lda #KEY_NONE
   114 20E3 8D FC 02		        sta CH
   115 20E6 4C F4 20		        jmp demo_next
   116 20E9			demo_popup_key
   117 20E9 A9 FF		        lda #KEY_NONE
   118 20EB 8D FC 02		        sta CH
   119 20EE 20 88 23		        jsr demo_show_popup
   120 20F1 4C BE 20		        jmp demo_wait
   121
   122 20F4			demo_next
   123 20F4 20 4B 2F		        jsr generate_demo_image
   124 20F7 4C 35 20		        jmp image_ok
   125
   126 20FA			clear_debug
   127 20FA A9 00		        lda #0
   128 20FC 8D 00 88		        sta debug_stage
   129 20FF 8D 01 88		        sta debug_dstats
   130 2102 8D 02 88		        sta debug_fn_error
   131 2105 8D 03 88		        sta debug_connected
   132 2108 8D 04 88		        sta debug_bytes_lo
   133 210B 8D 05 88		        sta debug_bytes_hi
   134 210E 8D 06 88		        sta debug_timeout_ctr
   135 2111 8D 07 88		        sta debug_rx_len
   136 2114 85 A3		        sta zp_rx_len
   137 2116 8D 0C 88		        sta img_pal_leftover
   138 2119 8D 13 88		        sta demo_mode
   139 211C 8D 18 88		        sta demo_input_active
   140 211F 60			        rts
   141
   142 2120			show_banner
   143 2120 A9 A3		        lda #<msg_title
   144 2122 A2 34		        ldx #>msg_title
   145 2124 A0 1E		        ldy #msg_title_end-msg_title
   146 2126 20 43 31		        jsr print_record
   147 2129 A9 C1		        lda #<msg_text_url
   148 212B A2 34		        ldx #>msg_text_url
   149 212D A0 0A		        ldy #msg_text_url_end-msg_text_url
   150 212F 20 43 31		        jsr print_record
   151 2132 A9 0F		        lda #<text_url_string
   152 2134 A2 34		        ldx #>text_url_string
   153 2136 A0 18		        ldy #text_url_string_end-text_url_string-1
   154 2138 20 43 31		        jsr print_record
   155 213B A9 CB		        lda #<msg_wait_text
   156 213D A2 34		        ldx #>msg_wait_text
   157 213F A0 11		        ldy #msg_wait_text_end-msg_wait_text
   158 2141 20 43 31		        jsr print_record
   159 2144 60			        rts
   160
   161 2145			wait_for_start_key
   162 2145 A9 00		        lda #0
   163 2147 8D 13 88		        sta demo_mode
   164 214A A9 FF		        lda #KEY_NONE
   165 214C 8D FC 02		        sta CH
   166 214F			wait_start_loop
   167 214F AD FC 02		        lda CH
   168 2152 C9 21		        cmp #KEY_SPACE
   169 2154 F0 14		        beq wait_space_done
   170 2156 C9 20		        cmp #CH_SPACE
   171 2158 F0 10		        beq wait_space_done
   172 215A C9 3A		        cmp #KEY_D
   173 215C F0 17		        beq wait_demo_done
   174 215E C9 FF		        cmp #KEY_NONE
   175 2160 F0 ED		        beq wait_start_loop
   176 2162 A9 FF		        lda #KEY_NONE
   177 2164 8D FC 02		        sta CH
   178 2167 4C 4F 21		        jmp wait_start_loop
   179 216A			wait_space_done
   180 216A A9 00		        lda #0
   181 216C 8D 13 88		        sta demo_mode
   182 216F A9 FF		        lda #KEY_NONE
   183 2171 8D FC 02		        sta CH
   184 2174 60			        rts
   185 2175			wait_demo_done
   186 2175 A9 01		        lda #1
   187 2177 8D 13 88		        sta demo_mode
   188 217A A9 FF		        lda #KEY_NONE
   189 217C 8D FC 02		        sta CH
   190 217F 60			        rts
   191
   192 2180			wait_for_any_key
   193 2180 A9 FF		        lda #KEY_NONE
   194 2182 8D FC 02		        sta CH
   195 2185			wait_any_loop
   196 2185 AD FC 02		        lda CH
   197 2188 C9 FF		        cmp #KEY_NONE
   198 218A F0 F9		        beq wait_any_loop
   199 218C A9 FF		        lda #KEY_NONE
   200 218E 8D FC 02		        sta CH
   201 2191 60			        rts
    50 2192			        icl 'client/input.asm'
Source: input.asm
     1 2192			demo_init_input
     2 2192 AD 18 88		        lda demo_input_active
     3 2195 D0 68		        bne demo_init_done
     4
     5 2197 A9 4C		        lda #DEMO_CURSOR_START_X
     6 2199 85 B0		        sta zp_demo_cursor_x
     7 219B A9 60		        lda #DEMO_CURSOR_START_Y
     8 219D 85 B1		        sta zp_demo_cursor_y
     9 219F A9 FF		        lda #$FF
    10 21A1 85 B2		        sta zp_demo_prev_x
    11 21A3 85 B6		        sta zp_demo_prev_y
    12 21A5 A9 00		        lda #0
    13 21A7 85 B4		        sta zp_mouse_dx
    14 21A9 85 B5		        sta zp_mouse_dy
    15
    16 21AB AD 00 D3		        lda PORTA
    17 21AE 4A			        lsr
    18 21AF 4A			        lsr
    19 21B0 4A			        lsr
    20 21B1 4A			        lsr
    21 21B2 AA			        tax
    22 21B3 8A			        txa
    23 21B4 29 03		        and #$03
    24 21B6 0A			        asl
    25 21B7 0A			        asl
    26 21B8 8D 1B 88		        sta demo_mouse_old_x
    27 21BB 8A			        txa
    28 21BC 4A			        lsr
    29 21BD 4A			        lsr
    30 21BE 29 03		        and #$03
    31 21C0 0A			        asl
    32 21C1 0A			        asl
    33 21C2 8D 1C 88		        sta demo_mouse_old_y
    34
    35 21C5 AD 11 D0		        lda STRIG1
    36 21C8 F0 04		        beq demo_init_trig_pressed
    37 21CA A9 01		        lda #1
    38 21CC D0 02		        bne demo_init_trig_store
    39 21CE			demo_init_trig_pressed
    40 21CE A9 00		        lda #0
    41 21D0			demo_init_trig_store
    42 21D0 85 B3		        sta zp_demo_prev_trig
    43
    44 21D2 20 00 22		        jsr demo_install_timer_stubs
    45
    46 21D5 78			        sei
    47 21D6 A9 00		        lda #<STUB_BASE
    48 21D8 8D 12 02		        sta VTIMR2
    49 21DB A9 06		        lda #>STUB_BASE
    50 21DD 8D 13 02		        sta VTIMR2+1
    51
    52 21E0 A5 10		        lda POKMSK
    53 21E2 09 02		        ora #$02
    54 21E4 85 10		        sta POKMSK
    55 21E6 8D 0E D2		        sta IRQEN
    56
    57 21E9 A9 00		        lda #0
    58 21EB 8D 08 D2		        sta AUDCTL
    59 21EE 8D 03 D2		        sta AUDC2
    60 21F1 A9 40		        lda #$40
    61 21F3 8D 02 D2		        sta AUDF2
    62 21F6 8D 09 D2		        sta STIMER
    63 21F9 58			        cli
    64
    65 21FA A9 01		        lda #1
    66 21FC 8D 18 88		        sta demo_input_active
    67 21FF			demo_init_done
    68 21FF 60			        rts
    69
    70 2200			demo_install_timer_stubs
    71 2200 A0 00		        ldy #0
    72 2202			demo_stub_copy
    73 2202 B9 BC 33		        lda demo_timer_stubs,y
    74 2205 99 00 06		        sta STUB_BASE,y
    75 2208 C8			        iny
    76 2209 C0 1D		        cpy #demo_timer_stubs_end-demo_timer_stubs
    77 220B D0 F5		        bne demo_stub_copy
    78
    79 220D A9 18		        lda #<demo_timer_irq
    80 220F 8D 0F 06		        sta STUB_BASE+15
    81 2212 A9 22		        lda #>demo_timer_irq
    82 2214 8D 10 06		        sta STUB_BASE+16
    83 2217 60			        rts
    84
    85 2218			demo_timer_irq
    86 2218 8A			        txa
    87 2219 48			        pha
    88 221A 98			        tya
    89 221B 48			        pha
    90
    91 221C AD 00 D3		        lda PORTA
    92 221F 4A			        lsr
    93 2220 4A			        lsr
    94 2221 4A			        lsr
    95 2222 4A			        lsr
    96 2223 AA			        tax
    97
    98 2224 29 03		        and #$03
    99 2226 0D 1B 88		        ora demo_mouse_old_x
   100 2229 A8			        tay
   101 222A B9 D9 33		        lda demo_mouse_movtab,y
   102 222D F0 09		        beq demo_timer_x_done
   103 222F 30 05		        bmi demo_timer_x_left
   104 2231 E6 B4		        inc zp_mouse_dx
   105 2233 4C 38 22		        jmp demo_timer_x_done
   106 2236			demo_timer_x_left
   107 2236 C6 B4		        dec zp_mouse_dx
   108 2238			demo_timer_x_done
   109 2238 8A			        txa
   110 2239 29 03		        and #$03
   111 223B 0A			        asl
   112 223C 0A			        asl
   113 223D 8D 1B 88		        sta demo_mouse_old_x
   114
   115 2240 8A			        txa
   116 2241 4A			        lsr
   117 2242 4A			        lsr
   118 2243 29 03		        and #$03
   119 2245 0D 1C 88		        ora demo_mouse_old_y
   120 2248 A8			        tay
   121 2249 B9 D9 33		        lda demo_mouse_movtab,y
   122 224C F0 09		        beq demo_timer_y_done
   123 224E 30 05		        bmi demo_timer_y_up
   124 2250 E6 B5		        inc zp_mouse_dy
   125 2252 4C 57 22		        jmp demo_timer_y_done
   126 2255			demo_timer_y_up
   127 2255 C6 B5		        dec zp_mouse_dy
   128 2257			demo_timer_y_done
   129 2257 8A			        txa
   130 2258 4A			        lsr
   131 2259 4A			        lsr
   132 225A 29 03		        and #$03
   133 225C 0A			        asl
   134 225D 0A			        asl
   135 225E 8D 1C 88		        sta demo_mouse_old_y
   136
   137 2261 68			        pla
   138 2262 A8			        tay
   139 2263 68			        pla
   140 2264 AA			        tax
   141 2265 4C 11 06		        jmp STUB_TIRQ_EXIT
   142
   143 2268			demo_update_input
   144 2268 78			        sei
   145 2269 A5 B4		        lda zp_mouse_dx
   146 226B 8D 19 88		        sta demo_pending_dx
   147 226E A9 00		        lda #0
   148 2270 85 B4		        sta zp_mouse_dx
   149 2272 A5 B5		        lda zp_mouse_dy
   150 2274 8D 1A 88		        sta demo_pending_dy
   151 2277 A9 00		        lda #0
   152 2279 85 B5		        sta zp_mouse_dy
   153 227B 58			        cli
   154
   155 227C AD 19 88		        lda demo_pending_dx
   156 227F 0D 1A 88		        ora demo_pending_dy
   157 2282 F0 03		        beq demo_update_joy
   158 2284 20 8B 22		        jsr demo_apply_mouse
   159 2287			demo_update_joy
   160 2287 20 EC 22		        jsr demo_apply_joystick
   161 228A 60			        rts
   162
   163 228B			demo_apply_mouse
   164 228B AD 19 88		        lda demo_pending_dx
   165 228E F0 2B		        beq demo_apply_mouse_y
   166 2290 10 15		        bpl demo_apply_mouse_x_pos
   167 2292 49 FF		        eor #$FF
   168 2294 18			        clc
   169 2295 69 01		        adc #1
   170 2297 4A			        lsr
   171 2298 AA			        tax
   172 2299 F0 1B		        beq demo_apply_mouse_x_clear
   173 229B			demo_apply_mouse_x_neg_loop
   174 229B A5 B0		        lda zp_demo_cursor_x
   175 229D F0 17		        beq demo_apply_mouse_x_clear
   176 229F C6 B0		        dec zp_demo_cursor_x
   177 22A1 CA			        dex
   178 22A2 D0 F7		        bne demo_apply_mouse_x_neg_loop
   179 22A4 4C B6 22		        jmp demo_apply_mouse_x_clear
   180
   181 22A7			demo_apply_mouse_x_pos
   182 22A7 4A			        lsr
   183 22A8 AA			        tax
   184 22A9 F0 0B		        beq demo_apply_mouse_x_clear
   185 22AB			demo_apply_mouse_x_pos_loop
   186 22AB A5 B0		        lda zp_demo_cursor_x
   187 22AD C9 9F		        cmp #DEMO_CURSOR_MAX_X
   188 22AF B0 05		        bcs demo_apply_mouse_x_clear
   189 22B1 E6 B0		        inc zp_demo_cursor_x
   190 22B3 CA			        dex
   191 22B4 D0 F5		        bne demo_apply_mouse_x_pos_loop
   192
   193 22B6			demo_apply_mouse_x_clear
   194 22B6 A9 00		        lda #0
   195 22B8 8D 19 88		        sta demo_pending_dx
   196
   197 22BB			demo_apply_mouse_y
   198 22BB AD 1A 88		        lda demo_pending_dy
   199 22BE F0 2B		        beq demo_apply_mouse_done
   200 22C0 10 15		        bpl demo_apply_mouse_y_pos
   201 22C2 49 FF		        eor #$FF
   202 22C4 18			        clc
   203 22C5 69 01		        adc #1
   204 22C7 4A			        lsr
   205 22C8 AA			        tax
   206 22C9 F0 1B		        beq demo_apply_mouse_y_clear
   207 22CB			demo_apply_mouse_y_neg_loop
   208 22CB A5 B1		        lda zp_demo_cursor_y
   209 22CD F0 17		        beq demo_apply_mouse_y_clear
   210 22CF C6 B1		        dec zp_demo_cursor_y
   211 22D1 CA			        dex
   212 22D2 D0 F7		        bne demo_apply_mouse_y_neg_loop
   213 22D4 4C E6 22		        jmp demo_apply_mouse_y_clear
   214
   215 22D7			demo_apply_mouse_y_pos
   216 22D7 4A			        lsr
   217 22D8 AA			        tax
   218 22D9 F0 0B		        beq demo_apply_mouse_y_clear
   219 22DB			demo_apply_mouse_y_pos_loop
   220 22DB A5 B1		        lda zp_demo_cursor_y
   221 22DD C9 C7		        cmp #DEMO_CURSOR_MAX_Y
   222 22DF B0 05		        bcs demo_apply_mouse_y_clear
   223 22E1 E6 B1		        inc zp_demo_cursor_y
   224 22E3 CA			        dex
   225 22E4 D0 F5		        bne demo_apply_mouse_y_pos_loop
   226
   227 22E6			demo_apply_mouse_y_clear
   228 22E6 A9 00		        lda #0
   229 22E8 8D 1A 88		        sta demo_pending_dy
   230 22EB			demo_apply_mouse_done
   231 22EB 60			        rts
   232
   233 22EC			demo_apply_joystick
   234 22EC AD 79 02		        lda STICK1
   235 22EF 29 0F		        and #$0F
   236 22F1 8D 1D 88		        sta demo_stick_state
   237 22F4 C9 0F		        cmp #$0F
   238 22F6 F0 38		        beq demo_joy_done
   239
   240 22F8 AD 1D 88		        lda demo_stick_state
   241 22FB 29 04		        and #$04
   242 22FD D0 06		        bne demo_joy_right
   243 22FF A5 B0		        lda zp_demo_cursor_x
   244 2301 F0 02		        beq demo_joy_right
   245 2303 C6 B0		        dec zp_demo_cursor_x
   246 2305			demo_joy_right
   247 2305 AD 1D 88		        lda demo_stick_state
   248 2308 29 08		        and #$08
   249 230A D0 08		        bne demo_joy_up
   250 230C A5 B0		        lda zp_demo_cursor_x
   251 230E C9 9F		        cmp #DEMO_CURSOR_MAX_X
   252 2310 B0 02		        bcs demo_joy_up
   253 2312 E6 B0		        inc zp_demo_cursor_x
   254 2314			demo_joy_up
   255 2314 AD 1D 88		        lda demo_stick_state
   256 2317 29 01		        and #$01
   257 2319 D0 06		        bne demo_joy_down
   258 231B A5 B1		        lda zp_demo_cursor_y
   259 231D F0 02		        beq demo_joy_down
   260 231F C6 B1		        dec zp_demo_cursor_y
   261 2321			demo_joy_down
   262 2321 AD 1D 88		        lda demo_stick_state
   263 2324 29 02		        and #$02
   264 2326 D0 08		        bne demo_joy_done
   265 2328 A5 B1		        lda zp_demo_cursor_y
   266 232A C9 C7		        cmp #DEMO_CURSOR_MAX_Y
   267 232C B0 02		        bcs demo_joy_done
   268 232E E6 B1		        inc zp_demo_cursor_y
   269 2330			demo_joy_done
   270 2330 60			        rts
   271
   272 2331			demo_poll_click
   273 2331 AD 11 D0		        lda STRIG1
   274 2334 F0 06		        beq demo_click_pressed
   275 2336 A9 01		        lda #1
   276 2338 85 B3		        sta zp_demo_prev_trig
   277 233A 18			        clc
   278 233B 60			        rts
   279
   280 233C			demo_click_pressed
   281 233C A5 B3		        lda zp_demo_prev_trig
   282 233E F0 06		        beq demo_click_held
   283 2340 A9 00		        lda #0
   284 2342 85 B3		        sta zp_demo_prev_trig
   285 2344 38			        sec
   286 2345 60			        rts
   287 2346			demo_click_held
   288 2346 18			        clc
   289 2347 60			        rts
   290
   291 2348			demo_suspend_input_irq
   292 2348 AD 18 88		        lda demo_input_active
   293 234B F0 0B		        beq demo_suspend_done
   294 234D 78			        sei
   295 234E A5 10		        lda POKMSK
   296 2350 29 FD		        and #$FD
   297 2352 85 10		        sta POKMSK
   298 2354 8D 0E D2		        sta IRQEN
   299 2357 58			        cli
   300 2358			demo_suspend_done
   301 2358 60			        rts
   302
   303 2359			demo_resume_input_irq
   304 2359 AD 18 88		        lda demo_input_active
   305 235C F0 13		        beq demo_resume_done
   306 235E 78			        sei
   307 235F A5 10		        lda POKMSK
   308 2361 09 02		        ora #$02
   309 2363 85 10		        sta POKMSK
   310 2365 8D 0E D2		        sta IRQEN
   311 2368 A9 40		        lda #$40
   312 236A 8D 02 D2		        sta AUDF2
   313 236D 8D 09 D2		        sta STIMER
   314 2370 58			        cli
   315 2371			demo_resume_done
   316 2371 60			        rts
    51 2372			        icl 'client/popup.asm'
Source: popup.asm
     1 2372			demo_click_stamp
     2 2372 A5 B6		        lda zp_demo_prev_y
     3 2374 C9 FF		        cmp #$FF
     4 2376 F0 09		        beq demo_click_stamp_patch
     5 2378 20 CC 25		        jsr demo_restore_cursor
     6 237B A9 FF		        lda #$FF
     7 237D 85 B2		        sta zp_demo_prev_x
     8 237F 85 B6		        sta zp_demo_prev_y
     9 2381			demo_click_stamp_patch
    10 2381 20 1E 26		        jsr demo_apply_stamp
    11 2384 20 52 25		        jsr demo_draw_cursor
    12 2387 60			        rts
    13
    14 2388			demo_show_popup
    15 2388 A5 B6		        lda zp_demo_prev_y
    16 238A C9 FF		        cmp #$FF
    17 238C F0 09		        beq demo_show_popup_check
    18 238E 20 CC 25		        jsr demo_restore_cursor
    19 2391 A9 FF		        lda #$FF
    20 2393 85 B2		        sta zp_demo_prev_x
    21 2395 85 B6		        sta zp_demo_prev_y
    22 2397			demo_show_popup_check
    23 2397 AD 2B 88		        lda demo_popup_active
    24 239A F0 08		        beq demo_show_popup_draw
    25 239C 20 D0 23		        jsr demo_popup_hit_test
    26 239F B0 14		        bcs demo_show_popup_done
    27 23A1 20 30 24		        jsr demo_restore_popup_under
    28 23A4			demo_show_popup_draw
    29 23A4 20 B9 23		        jsr demo_calc_popup_position
    30 23A7 20 E8 23		        jsr demo_save_popup_under
    31 23AA 20 79 24		        jsr demo_draw_popup_box
    32 23AD 20 CF 24		        jsr demo_draw_popup_text
    33 23B0 A9 01		        lda #1
    34 23B2 8D 2B 88		        sta demo_popup_active
    35 23B5			demo_show_popup_done
    36 23B5 20 52 25		        jsr demo_draw_cursor
    37 23B8 60			        rts
    38
    39 23B9			demo_calc_popup_position
    40 23B9 A5 B0		        lda zp_demo_cursor_x
    41 23BB C9 50		        cmp #DEMO_POPUP_MAX_X
    42 23BD 90 02		        bcc demo_popup_x_ok
    43 23BF A9 50		        lda #DEMO_POPUP_MAX_X
    44 23C1			demo_popup_x_ok
    45 23C1 8D 2C 88		        sta demo_popup_x
    46
    47 23C4 A5 B1		        lda zp_demo_cursor_y
    48 23C6 C9 BC		        cmp #DEMO_POPUP_MAX_Y
    49 23C8 90 02		        bcc demo_popup_y_ok
    50 23CA A9 BC		        lda #DEMO_POPUP_MAX_Y
    51 23CC			demo_popup_y_ok
    52 23CC 8D 2D 88		        sta demo_popup_y
    53 23CF 60			        rts
    54
    55 23D0			demo_popup_hit_test
    56 23D0 A5 B0		        lda zp_demo_cursor_x
    57 23D2 38			        sec
    58 23D3 ED 2C 88		        sbc demo_popup_x
    59 23D6 C9 50		        cmp #DEMO_POPUP_WIDTH_LOGICAL
    60 23D8 B0 0C		        bcs demo_popup_hit_miss
    61 23DA A5 B1		        lda zp_demo_cursor_y
    62 23DC 38			        sec
    63 23DD ED 2D 88		        sbc demo_popup_y
    64 23E0 C9 0C		        cmp #DEMO_POPUP_HEIGHT
    65 23E2 B0 02		        bcs demo_popup_hit_miss
    66 23E4 38			        sec
    67 23E5 60			        rts
    68 23E6			demo_popup_hit_miss
    69 23E6 18			        clc
    70 23E7 60			        rts
    71
    72 23E8			demo_save_popup_under
    73 23E8 A9 E0		        lda #<demo_popup_saved
    74 23EA 85 89		        sta zp_tmp_ptr2
    75 23EC A9 8D		        lda #>demo_popup_saved
    76 23EE 85 8A		        sta zp_tmp_ptr2+1
    77 23F0 A9 00		        lda #0
    78 23F2 8D 2E 88		        sta demo_popup_row
    79 23F5			demo_popup_save_row_loop
    80 23F5 AD 2D 88		        lda demo_popup_y
    81 23F8 18			        clc
    82 23F9 6D 2E 88		        adc demo_popup_row
    83 23FC AE 2C 88		        ldx demo_popup_x
    84 23FF 20 77 27		        jsr demo_prepare_cursor_row_table
    85 2402 20 03 28		        jsr demo_mem_open
    86 2405 A2 00		        ldx #0
    87 2407			demo_popup_save_pix_loop
    88 2407 A0 00		        ldy #0
    89 2409 B1 87		        lda (zp_tmp_ptr),y
    90 240B A0 00		        ldy #0
    91 240D 91 89		        sta (zp_tmp_ptr2),y
    92 240F E6 89		        inc zp_tmp_ptr2
    93 2411 D0 02		        bne demo_popup_save_ptr_ok
    94 2413 E6 8A		        inc zp_tmp_ptr2+1
    95 2415			demo_popup_save_ptr_ok
    96 2415 20 16 28		        jsr demo_mem_advance
    97 2418 E8			        inx
    98 2419 E0 A0		        cpx #DEMO_POPUP_WIDTH
    99 241B D0 EA		        bne demo_popup_save_pix_loop
   100 241D			        memb_off
Macro: MEMB_OFF [Source: vbxe_const.asm]
     1 241D A9 00		        lda #0
     2 241F 85 AD		        sta zp_memb_shadow     ; shadow FIRST (NMI-safe ordering)
     3 2421 A0 5D		        ldy #VBXE_MEMAC_B
     4 2423 91 80		        sta (zp_vbxe_base),y
Source: popup.asm
   101 2425 EE 2E 88		        inc demo_popup_row
   102 2428 AD 2E 88		        lda demo_popup_row
   103 242B C9 0C		        cmp #DEMO_POPUP_HEIGHT
   104 242D D0 C6		        bne demo_popup_save_row_loop
   105 242F 60			        rts
   106
   107 2430			demo_restore_popup_under
   108 2430 A9 E0		        lda #<demo_popup_saved
   109 2432 85 89		        sta zp_tmp_ptr2
   110 2434 A9 8D		        lda #>demo_popup_saved
   111 2436 85 8A		        sta zp_tmp_ptr2+1
   112 2438 A9 00		        lda #0
   113 243A 8D 2E 88		        sta demo_popup_row
   114 243D			demo_popup_restore_row_loop
   115 243D AD 2D 88		        lda demo_popup_y
   116 2440 18			        clc
   117 2441 6D 2E 88		        adc demo_popup_row
   118 2444 AE 2C 88		        ldx demo_popup_x
   119 2447 20 77 27		        jsr demo_prepare_cursor_row_table
   120 244A 20 03 28		        jsr demo_mem_open
   121 244D A2 00		        ldx #0
   122 244F			demo_popup_restore_pix_loop
   123 244F A0 00		        ldy #0
   124 2451 B1 89		        lda (zp_tmp_ptr2),y
   125 2453 E6 89		        inc zp_tmp_ptr2
   126 2455 D0 02		        bne demo_popup_restore_ptr_ok
   127 2457 E6 8A		        inc zp_tmp_ptr2+1
   128 2459			demo_popup_restore_ptr_ok
   129 2459 20 0F 28		        jsr demo_mem_put
   130 245C E8			        inx
   131 245D E0 A0		        cpx #DEMO_POPUP_WIDTH
   132 245F D0 EE		        bne demo_popup_restore_pix_loop
   133 2461			        memb_off
Macro: MEMB_OFF [Source: vbxe_const.asm]
     1 2461 A9 00		        lda #0
     2 2463 85 AD		        sta zp_memb_shadow     ; shadow FIRST (NMI-safe ordering)
     3 2465 A0 5D		        ldy #VBXE_MEMAC_B
     4 2467 91 80		        sta (zp_vbxe_base),y
Source: popup.asm
   134 2469 EE 2E 88		        inc demo_popup_row
   135 246C AD 2E 88		        lda demo_popup_row
   136 246F C9 0C		        cmp #DEMO_POPUP_HEIGHT
   137 2471 D0 CA		        bne demo_popup_restore_row_loop
   138 2473 A9 00		        lda #0
   139 2475 8D 2B 88		        sta demo_popup_active
   140 2478 60			        rts
   141
   142 2479			demo_draw_popup_box
   143 2479 A9 00		        lda #0
   144 247B 8D 2E 88		        sta demo_popup_row
   145 247E			demo_popup_box_row_loop
   146 247E AD 2D 88		        lda demo_popup_y
   147 2481 18			        clc
   148 2482 6D 2E 88		        adc demo_popup_row
   149 2485 AE 2C 88		        ldx demo_popup_x
   150 2488 20 77 27		        jsr demo_prepare_cursor_row_table
   151 248B 20 03 28		        jsr demo_mem_open
   152 248E AD 2E 88		        lda demo_popup_row
   153 2491 F0 1D		        beq demo_popup_border_row
   154 2493 C9 0B		        cmp #DEMO_POPUP_LAST_ROW
   155 2495 F0 19		        beq demo_popup_border_row
   156
   157 2497 A9 FA		        lda #DEMO_POPUP_BORDER_COLOR
   158 2499 20 0F 28		        jsr demo_mem_put
   159 249C A2 00		        ldx #0
   160 249E			demo_popup_fill_loop
   161 249E A9 18		        lda #DEMO_POPUP_FILL_COLOR
   162 24A0 20 0F 28		        jsr demo_mem_put
   163 24A3 E8			        inx
   164 24A4 E0 9E		        cpx #DEMO_POPUP_INNER_WIDTH
   165 24A6 D0 F6		        bne demo_popup_fill_loop
   166 24A8 A9 FA		        lda #DEMO_POPUP_BORDER_COLOR
   167 24AA 20 0F 28		        jsr demo_mem_put
   168 24AD 4C BC 24		        jmp demo_popup_box_row_done
   169
   170 24B0			demo_popup_border_row
   171 24B0 A2 00		        ldx #0
   172 24B2			demo_popup_border_fill_loop
   173 24B2 A9 FA		        lda #DEMO_POPUP_BORDER_COLOR
   174 24B4 20 0F 28		        jsr demo_mem_put
   175 24B7 E8			        inx
   176 24B8 E0 A0		        cpx #DEMO_POPUP_WIDTH
   177 24BA D0 F6		        bne demo_popup_border_fill_loop
   178
   179 24BC			demo_popup_box_row_done
   180 24BC			        memb_off
Macro: MEMB_OFF [Source: vbxe_const.asm]
     1 24BC A9 00		        lda #0
     2 24BE 85 AD		        sta zp_memb_shadow     ; shadow FIRST (NMI-safe ordering)
     3 24C0 A0 5D		        ldy #VBXE_MEMAC_B
     4 24C2 91 80		        sta (zp_vbxe_base),y
Source: popup.asm
   181 24C4 EE 2E 88		        inc demo_popup_row
   182 24C7 AD 2E 88		        lda demo_popup_row
   183 24CA C9 0C		        cmp #DEMO_POPUP_HEIGHT
   184 24CC D0 B0		        bne demo_popup_box_row_loop
   185 24CE 60			        rts
   186
   187 24CF			demo_draw_popup_text
   188 24CF A9 00		        lda #0
   189 24D1 8D 30 88		        sta demo_popup_text_row
   190 24D4			demo_popup_text_row_loop
   191 24D4 AD 2D 88		        lda demo_popup_y
   192 24D7 18			        clc
   193 24D8 6D 30 88		        adc demo_popup_text_row
   194 24DB 69 02		        adc #2
   195 24DD AE 2C 88		        ldx demo_popup_x
   196 24E0 E8			        inx
   197 24E1 E8			        inx
   198 24E2 20 77 27		        jsr demo_prepare_cursor_row_table
   199 24E5 20 03 28		        jsr demo_mem_open
   200
   201 24E8 A9 00		        lda #0
   202 24EA 8D 2F 88		        sta demo_popup_char_ix
   203 24ED			demo_popup_char_loop
   204 24ED AC 2F 88		        ldy demo_popup_char_ix
   205 24F0 B9 F5 33		        lda demo_popup_text,y
   206 24F3 F0 27		        beq demo_popup_text_row_done
   207 24F5 20 2F 25		        jsr demo_get_popup_font_bits
   208 24F8 8D 31 88		        sta demo_popup_font_bits
   209 24FB A2 00		        ldx #0
   210 24FD			demo_popup_font_bit_loop
   211 24FD AD 31 88		        lda demo_popup_font_bits
   212 2500 0A			        asl
   213 2501 8D 31 88		        sta demo_popup_font_bits
   214 2504 90 08		        bcc demo_popup_font_skip
   215 2506 A9 FC		        lda #DEMO_POPUP_TEXT_COLOR
   216 2508 20 0F 28		        jsr demo_mem_put
   217 250B 4C 11 25		        jmp demo_popup_font_next
   218 250E			demo_popup_font_skip
   219 250E 20 16 28		        jsr demo_mem_advance
   220 2511			demo_popup_font_next
   221 2511 E8			        inx
   222 2512 E0 08		        cpx #8
   223 2514 D0 E7		        bne demo_popup_font_bit_loop
   224 2516 EE 2F 88		        inc demo_popup_char_ix
   225 2519 4C ED 24		        jmp demo_popup_char_loop
   226
   227 251C			demo_popup_text_row_done
   228 251C			        memb_off
Macro: MEMB_OFF [Source: vbxe_const.asm]
     1 251C A9 00		        lda #0
     2 251E 85 AD		        sta zp_memb_shadow     ; shadow FIRST (NMI-safe ordering)
     3 2520 A0 5D		        ldy #VBXE_MEMAC_B
     4 2522 91 80		        sta (zp_vbxe_base),y
Source: popup.asm
   229 2524 EE 30 88		        inc demo_popup_text_row
   230 2527 AD 30 88		        lda demo_popup_text_row
   231 252A C9 08		        cmp #8
   232 252C D0 A6		        bne demo_popup_text_row_loop
   233 252E 60			        rts
   234
   235 252F			demo_get_popup_font_bits
   236 252F 85 8B		        sta zp_tmp1
   237 2531 29 1F		        and #$1F
   238 2533 0A			        asl
   239 2534 0A			        asl
   240 2535 0A			        asl
   241 2536 18			        clc
   242 2537 6D 30 88		        adc demo_popup_text_row
   243 253A 85 89		        sta zp_tmp_ptr2
   244 253C A5 8B		        lda zp_tmp1
   245 253E 4A			        lsr
   246 253F 4A			        lsr
   247 2540 4A			        lsr
   248 2541 4A			        lsr
   249 2542 4A			        lsr
   250 2543 AA			        tax
   251 2544 AD F4 02		        lda CHBAS
   252 2547 18			        clc
   253 2548 7D E9 33		        adc demo_font_page_map,x
   254 254B 85 8A		        sta zp_tmp_ptr2+1
   255 254D A0 00		        ldy #0
   256 254F B1 89		        lda (zp_tmp_ptr2),y
   257 2551 60			        rts
    52 2552			        icl 'client/cursor.asm'
Source: cursor.asm
     1 2552			demo_draw_cursor
     2 2552 A5 B6		        lda zp_demo_prev_y
     3 2554 C9 FF		        cmp #$FF
     4 2556 F0 0F		        beq demo_draw_new
     5 2558 A5 B0		        lda zp_demo_cursor_x
     6 255A C5 B2		        cmp zp_demo_prev_x
     7 255C D0 06		        bne demo_draw_move
     8 255E A5 B1		        lda zp_demo_cursor_y
     9 2560 C5 B6		        cmp zp_demo_prev_y
    10 2562 F0 11		        beq demo_draw_done
    11 2564			demo_draw_move
    12 2564 20 CC 25		        jsr demo_restore_cursor
    13
    14 2567			demo_draw_new
    15 2567 20 76 25		        jsr demo_save_cursor_under
    16 256A 20 90 26		        jsr demo_plot_cursor
    17 256D A5 B0		        lda zp_demo_cursor_x
    18 256F 85 B2		        sta zp_demo_prev_x
    19 2571 A5 B1		        lda zp_demo_cursor_y
    20 2573 85 B6		        sta zp_demo_prev_y
    21 2575			demo_draw_done
    22 2575 60			        rts
    23
    24 2576			demo_save_cursor_under
    25 2576 A5 B1		        lda zp_demo_cursor_y
    26 2578 20 FA 26		        jsr demo_calc_cursor_visible_rows
    27 257B 8D 26 88		        sta demo_cursor_clip_h
    28 257E A5 B0		        lda zp_demo_cursor_x
    29 2580 20 16 27		        jsr demo_calc_cursor_visible_bytes
    30 2583 8D 25 88		        sta demo_cursor_clip_w
    31 2586 A9 00		        lda #0
    32 2588 8D 1E 88		        sta demo_cursor_row_ix
    33 258B 8D 24 88		        sta demo_cursor_save_ix
    34 258E			demo_save_row_loop
    35 258E AD 1E 88		        lda demo_cursor_row_ix
    36 2591 CD 26 88		        cmp demo_cursor_clip_h
    37 2594 B0 35		        bcs demo_save_done
    38 2596 A5 B1		        lda zp_demo_cursor_y
    39 2598 18			        clc
    40 2599 6D 1E 88		        adc demo_cursor_row_ix
    41 259C A6 B0		        ldx zp_demo_cursor_x
    42 259E 20 77 27		        jsr demo_prepare_cursor_row_table
    43 25A1 20 03 28		        jsr demo_mem_open
    44 25A4 A2 00		        ldx #0
    45 25A6			demo_save_pix_loop
    46 25A6 EC 25 88		        cpx demo_cursor_clip_w
    47 25A9 F0 13		        beq demo_save_row_done
    48 25AB A0 00		        ldy #0
    49 25AD B1 87		        lda (zp_tmp_ptr),y
    50 25AF AC 24 88		        ldy demo_cursor_save_ix
    51 25B2 99 60 8D		        sta demo_cursor_saved,y
    52 25B5 EE 24 88		        inc demo_cursor_save_ix
    53 25B8 20 16 28		        jsr demo_mem_advance
    54 25BB E8			        inx
    55 25BC D0 E8		        bne demo_save_pix_loop
    56 25BE			demo_save_row_done
    57 25BE			        memb_off
Macro: MEMB_OFF [Source: vbxe_const.asm]
     1 25BE A9 00		        lda #0
     2 25C0 85 AD		        sta zp_memb_shadow     ; shadow FIRST (NMI-safe ordering)
     3 25C2 A0 5D		        ldy #VBXE_MEMAC_B
     4 25C4 91 80		        sta (zp_vbxe_base),y
Source: cursor.asm
    58 25C6 EE 1E 88		        inc demo_cursor_row_ix
    59 25C9 D0 C3		        bne demo_save_row_loop
    60 25CB			demo_save_done
    61 25CB 60			        rts
    62
    63 25CC			demo_restore_cursor
    64 25CC A5 B6		        lda zp_demo_prev_y
    65 25CE 20 FA 26		        jsr demo_calc_cursor_visible_rows
    66 25D1 8D 26 88		        sta demo_cursor_clip_h
    67 25D4 A5 B2		        lda zp_demo_prev_x
    68 25D6 20 16 27		        jsr demo_calc_cursor_visible_bytes
    69 25D9 8D 25 88		        sta demo_cursor_clip_w
    70 25DC A9 00		        lda #0
    71 25DE 8D 1E 88		        sta demo_cursor_row_ix
    72 25E1 8D 24 88		        sta demo_cursor_save_ix
    73 25E4			demo_restore_row_loop
    74 25E4 AD 1E 88		        lda demo_cursor_row_ix
    75 25E7 CD 26 88		        cmp demo_cursor_clip_h
    76 25EA B0 31		        bcs demo_restore_done
    77 25EC A5 B6		        lda zp_demo_prev_y
    78 25EE 18			        clc
    79 25EF 6D 1E 88		        adc demo_cursor_row_ix
    80 25F2 A6 B2		        ldx zp_demo_prev_x
    81 25F4 20 77 27		        jsr demo_prepare_cursor_row_table
    82 25F7 20 03 28		        jsr demo_mem_open
    83 25FA A2 00		        ldx #0
    84 25FC			demo_restore_pix_loop
    85 25FC EC 25 88		        cpx demo_cursor_clip_w
    86 25FF F0 0F		        beq demo_restore_row_done
    87 2601 AC 24 88		        ldy demo_cursor_save_ix
    88 2604 B9 60 8D		        lda demo_cursor_saved,y
    89 2607 EE 24 88		        inc demo_cursor_save_ix
    90 260A 20 0F 28		        jsr demo_mem_put
    91 260D E8			        inx
    92 260E D0 EC		        bne demo_restore_pix_loop
    93 2610			demo_restore_row_done
    94 2610			        memb_off
Macro: MEMB_OFF [Source: vbxe_const.asm]
     1 2610 A9 00		        lda #0
     2 2612 85 AD		        sta zp_memb_shadow     ; shadow FIRST (NMI-safe ordering)
     3 2614 A0 5D		        ldy #VBXE_MEMAC_B
     4 2616 91 80		        sta (zp_vbxe_base),y
Source: cursor.asm
    95 2618 EE 1E 88		        inc demo_cursor_row_ix
    96 261B D0 C7		        bne demo_restore_row_loop
    97 261D			demo_restore_done
    98 261D 60			        rts
    99
   100 261E			demo_apply_stamp
   101 261E AD 27 88		        lda demo_stamp_phase
   102 2621 18			        clc
   103 2622 69 29		        adc #$29
   104 2624 8D 27 88		        sta demo_stamp_phase
   105
   106 2627 A9 A0		        lda #160
   107 2629 38			        sec
   108 262A E5 B0		        sbc zp_demo_cursor_x
   109 262C C9 0A		        cmp #10
   110 262E 90 04		        bcc demo_stamp_width_clip
   111 2630 A9 14		        lda #DEMO_STAMP_SIZE
   112 2632 D0 01		        bne demo_stamp_width_done
   113 2634			demo_stamp_width_clip
   114 2634 0A			        asl
   115 2635			demo_stamp_width_done
   116 2635 8D 28 88		        sta demo_stamp_width
   117
   118 2638 A9 C8		        lda #DEMO_HEIGHT
   119 263A 38			        sec
   120 263B E5 B1		        sbc zp_demo_cursor_y
   121 263D C9 14		        cmp #DEMO_STAMP_SIZE
   122 263F 90 02		        bcc demo_stamp_height_clip
   123 2641 A9 14		        lda #DEMO_STAMP_SIZE
   124 2643			demo_stamp_height_clip
   125 2643 8D 29 88		        sta demo_stamp_height
   126
   127 2646 AD 28 88		        lda demo_stamp_width
   128 2649 F0 44		        beq demo_apply_stamp_done
   129 264B AD 29 88		        lda demo_stamp_height
   130 264E F0 3F		        beq demo_apply_stamp_done
   131
   132 2650 A9 00		        lda #0
   133 2652 8D 2A 88		        sta demo_stamp_row
   134 2655			demo_stamp_row_loop
   135 2655 A5 B1		        lda zp_demo_cursor_y
   136 2657 18			        clc
   137 2658 6D 2A 88		        adc demo_stamp_row
   138 265B A6 B0		        ldx zp_demo_cursor_x
   139 265D 20 77 27		        jsr demo_prepare_cursor_row_table
   140 2660 20 03 28		        jsr demo_mem_open
   141 2663 A2 00		        ldx #0
   142 2665			demo_stamp_pix_loop
   143 2665 8A			        txa
   144 2666 0A			        asl
   145 2667 18			        clc
   146 2668 6D 2A 88		        adc demo_stamp_row
   147 266B 4D 27 88		        eor demo_stamp_phase
   148 266E 18			        clc
   149 266F 65 B0		        adc zp_demo_cursor_x
   150 2671 09 18		        ora #$18
   151 2673 20 0F 28		        jsr demo_mem_put
   152 2676 E8			        inx
   153 2677 EC 28 88		        cpx demo_stamp_width
   154 267A D0 E9		        bne demo_stamp_pix_loop
   155 267C			        memb_off
Macro: MEMB_OFF [Source: vbxe_const.asm]
     1 267C A9 00		        lda #0
     2 267E 85 AD		        sta zp_memb_shadow     ; shadow FIRST (NMI-safe ordering)
     3 2680 A0 5D		        ldy #VBXE_MEMAC_B
     4 2682 91 80		        sta (zp_vbxe_base),y
Source: cursor.asm
   156 2684 EE 2A 88		        inc demo_stamp_row
   157 2687 AD 2A 88		        lda demo_stamp_row
   158 268A CD 29 88		        cmp demo_stamp_height
   159 268D D0 C6		        bne demo_stamp_row_loop
   160 268F			demo_apply_stamp_done
   161 268F 60			        rts
   162
   163 2690			demo_plot_cursor
   164 2690 A5 B1		        lda zp_demo_cursor_y
   165 2692 20 FA 26		        jsr demo_calc_cursor_visible_rows
   166 2695 8D 26 88		        sta demo_cursor_clip_h
   167 2698 A5 B0		        lda zp_demo_cursor_x
   168 269A 20 08 27		        jsr demo_calc_cursor_visible_pairs
   169 269D 8D 25 88		        sta demo_cursor_clip_w
   170 26A0 A9 00		        lda #0
   171 26A2 8D 1E 88		        sta demo_cursor_row_ix
   172 26A5			demo_plot_row_loop
   173 26A5 AD 1E 88		        lda demo_cursor_row_ix
   174 26A8 CD 26 88		        cmp demo_cursor_clip_h
   175 26AB B0 4C		        bcs demo_plot_done
   176 26AD AC 1E 88		        ldy demo_cursor_row_ix
   177 26B0 B9 ED 33		        lda demo_arrow_data,y
   178 26B3 F0 3F		        beq demo_plot_row_next
   179 26B5 8D 1F 88		        sta demo_cursor_mask
   180 26B8 A5 B1		        lda zp_demo_cursor_y
   181 26BA 18			        clc
   182 26BB 6D 1E 88		        adc demo_cursor_row_ix
   183 26BE A6 B0		        ldx zp_demo_cursor_x
   184 26C0 20 77 27		        jsr demo_prepare_cursor_row_table
   185 26C3 20 03 28		        jsr demo_mem_open
   186 26C6 A2 00		        ldx #0
   187 26C8			demo_plot_bit_loop
   188 26C8 EC 25 88		        cpx demo_cursor_clip_w
   189 26CB F0 1F		        beq demo_plot_row_done
   190 26CD AD 1F 88		        lda demo_cursor_mask
   191 26D0 0A			        asl
   192 26D1 8D 1F 88		        sta demo_cursor_mask
   193 26D4 90 0D		        bcc demo_plot_skip_pair
   194 26D6 A9 01		        lda #DEMO_CURSOR_COLOR
   195 26D8 20 0F 28		        jsr demo_mem_put
   196 26DB A9 01		        lda #DEMO_CURSOR_COLOR
   197 26DD 20 0F 28		        jsr demo_mem_put
   198 26E0 4C E9 26		        jmp demo_plot_next_bit
   199 26E3			demo_plot_skip_pair
   200 26E3 20 16 28		        jsr demo_mem_advance
   201 26E6 20 16 28		        jsr demo_mem_advance
   202 26E9			demo_plot_next_bit
   203 26E9 E8			        inx
   204 26EA D0 DC		        bne demo_plot_bit_loop
   205 26EC			demo_plot_row_done
   206 26EC			        memb_off
Macro: MEMB_OFF [Source: vbxe_const.asm]
     1 26EC A9 00		        lda #0
     2 26EE 85 AD		        sta zp_memb_shadow     ; shadow FIRST (NMI-safe ordering)
     3 26F0 A0 5D		        ldy #VBXE_MEMAC_B
     4 26F2 91 80		        sta (zp_vbxe_base),y
Source: cursor.asm
   207 26F4			demo_plot_row_next
   208 26F4 EE 1E 88		        inc demo_cursor_row_ix
   209 26F7 D0 AC		        bne demo_plot_row_loop
   210 26F9			demo_plot_done
   211 26F9 60			        rts
   212
   213 26FA			demo_calc_cursor_visible_rows
   214 26FA 85 8B		        sta zp_tmp1
   215 26FC A9 C8		        lda #DEMO_HEIGHT
   216 26FE 38			        sec
   217 26FF E5 8B		        sbc zp_tmp1
   218 2701 C9 08		        cmp #demo_arrow_data_end-demo_arrow_data
   219 2703 90 02		        bcc demo_clip_rows_done
   220 2705 A9 08		        lda #demo_arrow_data_end-demo_arrow_data
   221 2707			demo_clip_rows_done
   222 2707 60			        rts
   223
   224 2708			demo_calc_cursor_visible_pairs
   225 2708 85 8B		        sta zp_tmp1
   226 270A A9 A0		        lda #160
   227 270C 38			        sec
   228 270D E5 8B		        sbc zp_tmp1
   229 270F C9 08		        cmp #8
   230 2711 90 02		        bcc demo_clip_pairs_done
   231 2713 A9 08		        lda #8
   232 2715			demo_clip_pairs_done
   233 2715 60			        rts
   234
   235 2716			demo_calc_cursor_visible_bytes
   236 2716 20 08 27		        jsr demo_calc_cursor_visible_pairs
   237 2719 0A			        asl
   238 271A 60			        rts
   239
   240 271B			demo_prepare_cursor_row
   241 271B 8D 22 88		        sta demo_cursor_abs_y
   242 271E 8A			        txa
   243 271F 0A			        asl
   244 2720 8D 21 88		        sta demo_cursor_x2
   245 2723 85 87		        sta zp_tmp_ptr
   246 2725 A9 00		        lda #0
   247 2727 69 00		        adc #0
   248 2729 8D 23 88		        sta demo_cursor_ofs_hi
   249
   250 272C AD 22 88		        lda demo_cursor_abs_y
   251 272F 0A			        asl
   252 2730 2E 23 88		        rol demo_cursor_ofs_hi
   253 2733 0A			        asl
   254 2734 2E 23 88		        rol demo_cursor_ofs_hi
   255 2737 0A			        asl
   256 2738 2E 23 88		        rol demo_cursor_ofs_hi
   257 273B 0A			        asl
   258 273C 2E 23 88		        rol demo_cursor_ofs_hi
   259 273F 0A			        asl
   260 2740 2E 23 88		        rol demo_cursor_ofs_hi
   261 2743 0A			        asl
   262 2744 2E 23 88		        rol demo_cursor_ofs_hi
   263 2747 18			        clc
   264 2748 65 87		        adc zp_tmp_ptr
   265 274A 85 87		        sta zp_tmp_ptr
   266 274C AD 23 88		        lda demo_cursor_ofs_hi
   267 274F 69 00		        adc #0
   268 2751 8D 23 88		        sta demo_cursor_ofs_hi
   269
   270 2754 18			        clc
   271 2755 AD 22 88		        lda demo_cursor_abs_y
   272 2758 6D 23 88		        adc demo_cursor_ofs_hi
   273 275B 8D 23 88		        sta demo_cursor_ofs_hi
   274
   275 275E AD 23 88		        lda demo_cursor_ofs_hi
   276 2761 4A			        lsr
   277 2762 4A			        lsr
   278 2763 4A			        lsr
   279 2764 4A			        lsr
   280 2765 4A			        lsr
   281 2766 4A			        lsr
   282 2767 18			        clc
   283 2768 69 02		        adc #2
   284 276A 8D 20 88		        sta demo_cursor_bank
   285
   286 276D AD 23 88		        lda demo_cursor_ofs_hi
   287 2770 29 3F		        and #$3F
   288 2772 09 40		        ora #$40
   289 2774 85 88		        sta zp_tmp_ptr+1
   290 2776 60			        rts
   291
   292 2777			demo_prepare_cursor_row_table
   293 2777 8D 22 88		        sta demo_cursor_abs_y
   294 277A A8			        tay
   295 277B B9 60 95		        lda demo_row_ptr_lo,y
   296 277E 85 87		        sta zp_tmp_ptr
   297 2780 B9 28 96		        lda demo_row_ptr_hi,y
   298 2783 85 88		        sta zp_tmp_ptr+1
   299 2785 B9 F0 96		        lda demo_row_bank,y
   300 2788 8D 20 88		        sta demo_cursor_bank
   301
   302 278B 8A			        txa
   303 278C 0A			        asl
   304 278D 8D 21 88		        sta demo_cursor_x2
   305 2790 A9 00		        lda #0
   306 2792 69 00		        adc #0
   307 2794 8D 23 88		        sta demo_cursor_ofs_hi
   308
   309 2797 18			        clc
   310 2798 A5 87		        lda zp_tmp_ptr
   311 279A 6D 21 88		        adc demo_cursor_x2
   312 279D 85 87		        sta zp_tmp_ptr
   313 279F A5 88		        lda zp_tmp_ptr+1
   314 27A1 6D 23 88		        adc demo_cursor_ofs_hi
   315 27A4 85 88		        sta zp_tmp_ptr+1
   316
   317 27A6 A5 88		        lda zp_tmp_ptr+1
   318 27A8 C9 80		        cmp #$80
   319 27AA 90 08		        bcc demo_prepare_row_table_done
   320 27AC 38			        sec
   321 27AD E9 40		        sbc #$40
   322 27AF 85 88		        sta zp_tmp_ptr+1
   323 27B1 EE 20 88		        inc demo_cursor_bank
   324 27B4			demo_prepare_row_table_done
   325 27B4 60			        rts
   326
   327 27B5			demo_build_row_table
   328 27B5 AD 0E 88		        lda img_vram
   329 27B8 8D 32 88		        sta demo_rowtab_ptr_lo
   330 27BB AD 0F 88		        lda img_vram+1
   331 27BE 29 3F		        and #$3F
   332 27C0 09 40		        ora #$40
   333 27C2 8D 33 88		        sta demo_rowtab_ptr_hi
   334 27C5 AD 11 88		        lda img_wr_bank
   335 27C8 8D 34 88		        sta demo_rowtab_bank
   336
   337 27CB A0 00		        ldy #0
   338 27CD			demo_build_row_loop
   339 27CD AD 32 88		        lda demo_rowtab_ptr_lo
   340 27D0 99 60 95		        sta demo_row_ptr_lo,y
   341 27D3 AD 33 88		        lda demo_rowtab_ptr_hi
   342 27D6 99 28 96		        sta demo_row_ptr_hi,y
   343 27D9 AD 34 88		        lda demo_rowtab_bank
   344 27DC 99 F0 96		        sta demo_row_bank,y
   345
   346 27DF 18			        clc
   347 27E0 AD 32 88		        lda demo_rowtab_ptr_lo
   348 27E3 69 40		        adc #<320
   349 27E5 8D 32 88		        sta demo_rowtab_ptr_lo
   350 27E8 AD 33 88		        lda demo_rowtab_ptr_hi
   351 27EB 69 01		        adc #>320
   352 27ED 8D 33 88		        sta demo_rowtab_ptr_hi
   353 27F0 C9 80		        cmp #$80
   354 27F2 90 09		        bcc demo_build_row_next
   355 27F4 38			        sec
   356 27F5 E9 40		        sbc #$40
   357 27F7 8D 33 88		        sta demo_rowtab_ptr_hi
   358 27FA EE 34 88		        inc demo_rowtab_bank
   359 27FD			demo_build_row_next
   360 27FD C8			        iny
   361 27FE C0 C8		        cpy #DEMO_HEIGHT
   362 2800 D0 CB		        bne demo_build_row_loop
   363 2802 60			        rts
   364
   365 2803			demo_mem_open
   366 2803 AD 20 88		        lda demo_cursor_bank
   367 2806 09 80		        ora #$80
   368 2808 85 AD		        sta zp_memb_shadow
   369 280A A0 5D		        ldy #VBXE_MEMAC_B
   370 280C 91 80		        sta (zp_vbxe_base),y
   371 280E 60			        rts
   372
   373 280F			demo_mem_put
   374 280F A0 00		        ldy #0
   375 2811 91 87		        sta (zp_tmp_ptr),y
   376 2813 4C 16 28		        jmp demo_mem_advance
   377
   378 2816			demo_mem_advance
   379 2816 E6 87		        inc zp_tmp_ptr
   380 2818 D0 02		        bne demo_mem_advance_check
   381 281A E6 88		        inc zp_tmp_ptr+1
   382 281C			demo_mem_advance_check
   383 281C A5 88		        lda zp_tmp_ptr+1
   384 281E C9 80		        cmp #$80
   385 2820 D0 12		        bne demo_mem_advance_done
   386 2822 A9 40		        lda #$40
   387 2824 85 88		        sta zp_tmp_ptr+1
   388 2826 EE 20 88		        inc demo_cursor_bank
   389 2829 AD 20 88		        lda demo_cursor_bank
   390 282C 09 80		        ora #$80
   391 282E 85 AD		        sta zp_memb_shadow
   392 2830 A0 5D		        ldy #VBXE_MEMAC_B
   393 2832 91 80		        sta (zp_vbxe_base),y
   394 2834			demo_mem_advance_done
   395 2834 60			        rts
    53 2835			        icl 'client/text_io.asm'
Source: text_io.asm
     1 2835			copy_text_url_to_buffer
     2 2835 A9 0F		        lda #<text_url_string
     3 2837 85 87		        sta zp_tmp_ptr
     4 2839 A9 34		        lda #>text_url_string
     5 283B 85 88		        sta zp_tmp_ptr+1
     6 283D 4C B3 28		        jmp copy_string_to_buffer
     7
     8 2840			copy_room_url_to_buffer
     9 2840 A9 28		        lda #<room_url_prefix
    10 2842 85 87		        sta zp_tmp_ptr
    11 2844 A9 34		        lda #>room_url_prefix
    12 2846 85 88		        sta zp_tmp_ptr+1
    13 2848 20 B3 28		        jsr copy_string_to_buffer
    14 284B A0 00		        ldy #0
    15 284D			copy_room_find_end
    16 284D B9 60 88		        lda url_buffer,y
    17 2850 F0 03		        beq copy_room_append_name
    18 2852 C8			        iny
    19 2853 D0 F8		        bne copy_room_find_end
    20 2855			copy_room_append_name
    21 2855 20 C9 28		        jsr append_current_room_name
    22 2858 A9 00		        lda #0
    23 285A 99 60 88		        sta url_buffer,y
    24 285D 60			        rts
    25
    26 285E			copy_click_url_to_buffer
    27 285E A9 46		        lda #<click_url_prefix
    28 2860 85 87		        sta zp_tmp_ptr
    29 2862 A9 34		        lda #>click_url_prefix
    30 2864 85 88		        sta zp_tmp_ptr+1
    31 2866 20 B3 28		        jsr copy_string_to_buffer
    32 2869 A0 00		        ldy #0
    33 286B			copy_click_find_end
    34 286B B9 60 88		        lda url_buffer,y
    35 286E F0 03		        beq copy_click_append_room
    36 2870 C8			        iny
    37 2871 D0 F8		        bne copy_click_find_end
    38 2873			copy_click_append_room
    39 2873 20 C9 28		        jsr append_current_room_name
    40 2876 A9 2F		        lda #'/'
    41 2878 99 60 88		        sta url_buffer,y
    42 287B C8			        iny
    43 287C A5 B0		        lda zp_demo_cursor_x
    44 287E 20 DA 28		        jsr append_hex_byte_to_buffer
    45 2881 A9 2F		        lda #'/'
    46 2883 99 60 88		        sta url_buffer,y
    47 2886 C8			        iny
    48 2887 A5 B1		        lda zp_demo_cursor_y
    49 2889 20 DA 28		        jsr append_hex_byte_to_buffer
    50 288C A9 00		        lda #0
    51 288E 99 60 88		        sta url_buffer,y
    52 2891 60			        rts
    53
    54 2892			copy_slide_url_to_buffer
    55 2892 AD 12 88		        lda slide_index
    56 2895 4A			        lsr
    57 2896 4A			        lsr
    58 2897 4A			        lsr
    59 2898 4A			        lsr
    60 2899 20 5B 31		        jsr nibble_to_hex
    61 289C 8D A0 34		        sta slide_url_hex_hi
    62
    63 289F AD 12 88		        lda slide_index
    64 28A2 20 5B 31		        jsr nibble_to_hex
    65 28A5 8D A1 34		        sta slide_url_hex_lo
    66
    67 28A8 A9 82		        lda #<slide_url_string
    68 28AA 85 87		        sta zp_tmp_ptr
    69 28AC A9 34		        lda #>slide_url_string
    70 28AE 85 88		        sta zp_tmp_ptr+1
    71 28B0 4C B3 28		        jmp copy_string_to_buffer
    72
    73 28B3			copy_string_to_buffer
    74 28B3 A9 00		        lda #0
    75 28B5 A8			        tay
    76 28B6			copy_url_clear_loop
    77 28B6 99 60 88		        sta url_buffer,y
    78 28B9 C8			        iny
    79 28BA D0 FA		        bne copy_url_clear_loop
    80
    81 28BC A0 00		        ldy #0
    82 28BE			copy_url_copy_loop
    83 28BE B1 87		        lda (zp_tmp_ptr),y
    84 28C0 99 60 88		        sta url_buffer,y
    85 28C3 F0 03		        beq copy_url_done
    86 28C5 C8			        iny
    87 28C6 D0 F6		        bne copy_url_copy_loop
    88 28C8			copy_url_done
    89 28C8 60			        rts
    90
    91 28C9			append_current_room_name
    92 28C9 A2 00		        ldx #0
    93 28CB			append_room_name_loop
    94 28CB BD 3E 88		        lda current_room_name,x
    95 28CE F0 09		        beq append_room_name_done
    96 28D0 99 60 88		        sta url_buffer,y
    97 28D3 C8			        iny
    98 28D4 E8			        inx
    99 28D5 E0 10		        cpx #ROOM_NAME_MAX
   100 28D7 90 F2		        bcc append_room_name_loop
   101 28D9			append_room_name_done
   102 28D9 60			        rts
   103
   104 28DA			append_hex_byte_to_buffer
   105 28DA 48			        pha
   106 28DB 4A			        lsr
   107 28DC 4A			        lsr
   108 28DD 4A			        lsr
   109 28DE 4A			        lsr
   110 28DF 20 5B 31		        jsr nibble_to_hex
   111 28E2 99 60 88		        sta url_buffer,y
   112 28E5 C8			        iny
   113 28E6 68			        pla
   114 28E7 20 5B 31		        jsr nibble_to_hex
   115 28EA 99 60 88		        sta url_buffer,y
   116 28ED C8			        iny
   117 28EE 60			        rts
   118
   119 28EF			fetch_text_payload
   120 28EF A9 01		        lda #1
   121 28F1 8D 00 88		        sta debug_stage
   122 28F4 20 8B 32		        jsr fn_open
   123 28F7 AD 03 03		        lda DSTATS
   124 28FA 8D 01 88		        sta debug_dstats
   125 28FD 90 03		        bcc text_open_ok
   126 28FF 4C 78 29		        jmp text_fail
   127
   128 2902			text_open_ok
   129 2902 A9 F0		        lda #VIEW_TIMEOUT
   130 2904 8D 06 88		        sta debug_timeout_ctr
   131
   132 2907			text_wait
   133 2907 A9 02		        lda #2
   134 2909 8D 00 88		        sta debug_stage
   135 290C 20 7A 29		        jsr poll_status
   136 290F 90 03		        bcc text_status_ok
   137 2911 4C 75 29		        jmp text_fail_close
   138
   139 2914			text_status_ok
   140 2914 AD 02 88		        lda debug_fn_error
   141 2917 30 03		        bmi text_status_fatal
   142 2919 4C 23 29		        jmp text_check_bytes
   143
   144 291C			text_status_fatal
   145 291C C9 88		        cmp #136
   146 291E F0 55		        beq text_fail_close
   147 2920 4C 75 29		        jmp text_fail_close
   148
   149 2923			text_check_bytes
   150 2923 AD 05 88		        lda debug_bytes_hi
   151 2926 D0 15		        bne text_read
   152 2928 AD 04 88		        lda debug_bytes_lo
   153 292B D0 10		        bne text_read
   154 292D AD 03 88		        lda debug_connected
   155 2930 F0 43		        beq text_fail_close
   156 2932 CE 06 88		        dec debug_timeout_ctr
   157 2935 F0 3E		        beq text_fail_close
   158 2937 20 98 29		        jsr wait_one_frame
   159 293A 4C 07 29		        jmp text_wait
   160
   161 293D			text_read
   162 293D A9 03		        lda #3
   163 293F 8D 00 88		        sta debug_stage
   164 2942 AD 05 88		        lda debug_bytes_hi
   165 2945 F0 04		        beq text_read_lo
   166 2947 A9 60		        lda #READ_LIMIT
   167 2949 D0 09		        bne text_read_set
   168
   169 294B			text_read_lo
   170 294B AD 04 88		        lda debug_bytes_lo
   171 294E C9 60		        cmp #READ_LIMIT
   172 2950 90 02		        bcc text_read_set
   173 2952 A9 60		        lda #READ_LIMIT
   174
   175 2954			text_read_set
   176 2954 85 A1		        sta zp_fn_bytes_lo
   177 2956 A9 00		        lda #0
   178 2958 85 A2		        sta zp_fn_bytes_hi
   179 295A 20 23 33		        jsr fn_read
   180 295D AD 03 03		        lda DSTATS
   181 2960 8D 01 88		        sta debug_dstats
   182 2963 90 03		        bcc text_read_ok
   183 2965 4C 75 29		        jmp text_fail_close
   184
   185 2968			text_read_ok
   186 2968 A5 A3		        lda zp_rx_len
   187 296A 8D 07 88		        sta debug_rx_len
   188 296D 20 9F 29		        jsr sanitize_rx_buffer
   189 2970 20 8B 33		        jsr fn_close
   190 2973 18			        clc
   191 2974 60			        rts
   192
   193 2975			text_fail_close
   194 2975 20 8B 33		        jsr fn_close
   195 2978			text_fail
   196 2978 38			        sec
   197 2979 60			        rts
   198
   199 297A			poll_status
   200 297A 20 CF 32		        jsr fn_status
   201 297D AD 03 03		        lda DSTATS
   202 2980 8D 01 88		        sta debug_dstats
   203 2983 A5 A0		        lda zp_fn_error
   204 2985 8D 02 88		        sta debug_fn_error
   205 2988 A5 9F		        lda zp_fn_connected
   206 298A 8D 03 88		        sta debug_connected
   207 298D A5 A1		        lda zp_fn_bytes_lo
   208 298F 8D 04 88		        sta debug_bytes_lo
   209 2992 A5 A2		        lda zp_fn_bytes_hi
   210 2994 8D 05 88		        sta debug_bytes_hi
   211 2997 60			        rts
   212
   213 2998			wait_one_frame
   214 2998 A5 14		        lda RTCLOK+2
   215 299A			wait_one_frame_loop
   216 299A C5 14		        cmp RTCLOK+2
   217 299C F0 FC		        beq wait_one_frame_loop
   218 299E 60			        rts
   219
   220 299F			sanitize_rx_buffer
   221 299F A2 00		        ldx #0
   222 29A1			sanitize_loop
   223 29A1 E4 A3		        cpx zp_rx_len
   224 29A3 F0 23		        beq sanitize_done
   225 29A5 BD 60 89		        lda rx_buffer,x
   226 29A8 C9 0D		        cmp #13
   227 29AA F0 0F		        beq sanitize_nl
   228 29AC C9 0A		        cmp #10
   229 29AE F0 0B		        beq sanitize_nl
   230 29B0 C9 20		        cmp #32
   231 29B2 90 0B		        bcc sanitize_dot
   232 29B4 C9 7F		        cmp #127
   233 29B6 B0 07		        bcs sanitize_dot
   234 29B8 4C C4 29		        jmp sanitize_next
   235
   236 29BB			sanitize_nl
   237 29BB A9 9B		        lda #ATASCII_RET
   238 29BD D0 02		        bne sanitize_store
   239
   240 29BF			sanitize_dot
   241 29BF A9 2E		        lda #'.'
   242
   243 29C1			sanitize_store
   244 29C1 9D 60 89		        sta rx_buffer,x
   245
   246 29C4			sanitize_next
   247 29C4 E8			        inx
   248 29C5 4C A1 29		        jmp sanitize_loop
   249 29C8			sanitize_done
   250 29C8 E0 FF		        cpx #255
   251 29CA F0 05		        beq sanitize_no_term
   252 29CC A9 00		        lda #0
   253 29CE 9D 60 89		        sta rx_buffer,x
   254 29D1			sanitize_no_term
   255 29D1 60			        rts
    54 29D2			        icl 'client/room_actions.asm'
Source: room_actions.asm
     1 29D2			init_current_room_name
     2 29D2 A2 00		        ldx #0
     3 29D4			init_room_name_loop
     4 29D4 BD 09 34		        lda default_room_name,x
     5 29D7 9D 3E 88		        sta current_room_name,x
     6 29DA F0 0A		        beq init_room_name_done
     7 29DC E8			        inx
     8 29DD E0 10		        cpx #ROOM_NAME_MAX
     9 29DF 90 F3		        bcc init_room_name_loop
    10 29E1 A9 00		        lda #0
    11 29E3 8D 4E 88		        sta current_room_name+ROOM_NAME_MAX
    12 29E6			init_room_name_done
    13 29E6 60			        rts
    14
    15 29E7			room_process_click_response
    16 29E7 A9 00		        lda #0
    17 29E9 8D 35 88		        sta room_action_pending_reload
    18 29EC AD 60 89		        lda rx_buffer
    19 29EF F0 6A		        beq room_action_done
    20
    21 29F1 C9 52		        cmp #'R'
    22 29F3 D0 20		        bne room_check_text
    23 29F5 AD 61 89		        lda rx_buffer+1
    24 29F8 C9 4F		        cmp #'O'
    25 29FA D0 19		        bne room_check_text
    26 29FC AD 62 89		        lda rx_buffer+2
    27 29FF C9 4F		        cmp #'O'
    28 2A01 D0 12		        bne room_check_text
    29 2A03 AD 63 89		        lda rx_buffer+3
    30 2A06 C9 4D		        cmp #'M'
    31 2A08 D0 0B		        bne room_check_text
    32 2A0A AD 64 89		        lda rx_buffer+4
    33 2A0D C9 3A		        cmp #':'
    34 2A0F D0 04		        bne room_check_text
    35 2A11 20 5C 2A		        jsr room_apply_change_action
    36 2A14 60			        rts
    37
    38 2A15			room_check_text
    39 2A15 AD 60 89		        lda rx_buffer
    40 2A18 C9 54		        cmp #'T'
    41 2A1A D0 20		        bne room_check_gfx
    42 2A1C AD 61 89		        lda rx_buffer+1
    43 2A1F C9 45		        cmp #'E'
    44 2A21 D0 19		        bne room_check_gfx
    45 2A23 AD 62 89		        lda rx_buffer+2
    46 2A26 C9 58		        cmp #'X'
    47 2A28 D0 12		        bne room_check_gfx
    48 2A2A AD 63 89		        lda rx_buffer+3
    49 2A2D C9 54		        cmp #'T'
    50 2A2F D0 0B		        bne room_check_gfx
    51 2A31 AD 64 89		        lda rx_buffer+4
    52 2A34 C9 3A		        cmp #':'
    53 2A36 D0 04		        bne room_check_gfx
    54 2A38 20 8E 2A		        jsr room_apply_text_action
    55 2A3B 60			        rts
    56
    57 2A3C			room_check_gfx
    58 2A3C AD 60 89		        lda rx_buffer
    59 2A3F C9 47		        cmp #'G'
    60 2A41 D0 18		        bne room_action_done
    61 2A43 AD 61 89		        lda rx_buffer+1
    62 2A46 C9 46		        cmp #'F'
    63 2A48 D0 11		        bne room_action_done
    64 2A4A AD 62 89		        lda rx_buffer+2
    65 2A4D C9 58		        cmp #'X'
    66 2A4F D0 0A		        bne room_action_done
    67 2A51 AD 63 89		        lda rx_buffer+3
    68 2A54 C9 3A		        cmp #':'
    69 2A56 D0 03		        bne room_action_done
    70 2A58 20 B3 2A		        jsr room_apply_graphics_action
    71
    72 2A5B			room_action_done
    73 2A5B 60			        rts
    74
    75 2A5C			room_apply_change_action
    76 2A5C A2 00		        ldx #0
    77 2A5E A0 05		        ldy #5
    78 2A60			room_change_copy_loop
    79 2A60 E0 10		        cpx #ROOM_NAME_MAX
    80 2A62 B0 1F		        bcs room_change_finish_max
    81 2A64 B9 60 89		        lda rx_buffer,y
    82 2A67 F0 0B		        beq room_change_finish
    83 2A69 C9 9B		        cmp #ATASCII_RET
    84 2A6B F0 07		        beq room_change_finish
    85 2A6D 9D 3E 88		        sta current_room_name,x
    86 2A70 E8			        inx
    87 2A71 C8			        iny
    88 2A72 D0 EC		        bne room_change_copy_loop
    89
    90 2A74			room_change_finish
    91 2A74 A9 00		        lda #0
    92 2A76 9D 3E 88		        sta current_room_name,x
    93 2A79 E0 00		        cpx #0
    94 2A7B F0 05		        beq room_change_done
    95 2A7D A9 01		        lda #1
    96 2A7F 8D 35 88		        sta room_action_pending_reload
    97 2A82			room_change_done
    98 2A82 60			        rts
    99
   100 2A83			room_change_finish_max
   101 2A83 A9 00		        lda #0
   102 2A85 8D 4E 88		        sta current_room_name+ROOM_NAME_MAX
   103 2A88 A9 01		        lda #1
   104 2A8A 8D 35 88		        sta room_action_pending_reload
   105 2A8D 60			        rts
   106
   107 2A8E			room_apply_text_action
   108 2A8E A2 00		        ldx #0
   109 2A90 A0 05		        ldy #5
   110 2A92			room_text_copy_loop
   111 2A92 E0 13		        cpx #DEMO_POPUP_TEXT_MAX
   112 2A94 B0 10		        bcs room_text_finish
   113 2A96 B9 60 89		        lda rx_buffer,y
   114 2A99 F0 0B		        beq room_text_finish
   115 2A9B C9 9B		        cmp #ATASCII_RET
   116 2A9D F0 07		        beq room_text_finish
   117 2A9F 9D F5 33		        sta demo_popup_text,x
   118 2AA2 E8			        inx
   119 2AA3 C8			        iny
   120 2AA4 D0 EC		        bne room_text_copy_loop
   121
   122 2AA6			room_text_finish
   123 2AA6 A9 00		        lda #0
   124 2AA8 9D F5 33		        sta demo_popup_text,x
   125 2AAB E0 00		        cpx #0
   126 2AAD F0 03		        beq room_text_done
   127 2AAF 20 88 23		        jsr demo_show_popup
   128 2AB2			room_text_done
   129 2AB2 60			        rts
   130
   131 2AB3			room_apply_graphics_action
   132 2AB3 A2 00		        ldx #0
   133 2AB5 A0 04		        ldy #4
   134 2AB7			room_gfx_room_copy_loop
   135 2AB7 E0 10		        cpx #ROOM_NAME_MAX
   136 2AB9 B0 6D		        bcs room_gfx_fail
   137 2ABB B9 60 89		        lda rx_buffer,y
   138 2ABE F0 68		        beq room_gfx_fail
   139 2AC0 C9 2C		        cmp #','
   140 2AC2 F0 0B		        beq room_gfx_room_done
   141 2AC4 C9 9B		        cmp #ATASCII_RET
   142 2AC6 F0 60		        beq room_gfx_fail
   143 2AC8 9D 4F 88		        sta room_patch_source_room,x
   144 2ACB E8			        inx
   145 2ACC C8			        iny
   146 2ACD D0 E8		        bne room_gfx_room_copy_loop
   147
   148 2ACF			room_gfx_room_done
   149 2ACF A9 00		        lda #0
   150 2AD1 9D 4F 88		        sta room_patch_source_room,x
   151 2AD4 E0 00		        cpx #0
   152 2AD6 F0 50		        beq room_gfx_fail
   153 2AD8 C8			        iny
   154 2AD9 20 29 2B		        jsr room_parse_hex_byte_field
   155 2ADC B0 4A		        bcs room_gfx_fail
   156 2ADE 8D 37 88		        sta room_patch_x_hi
   157 2AE1 C8			        iny
   158 2AE2 B9 60 89		        lda rx_buffer,y
   159 2AE5 C9 2C		        cmp #','
   160 2AE7 D0 3F		        bne room_gfx_fail
   161 2AE9 C8			        iny
   162 2AEA 20 29 2B		        jsr room_parse_hex_byte_field
   163 2AED B0 39		        bcs room_gfx_fail
   164 2AEF 8D 36 88		        sta room_patch_x_lo
   165 2AF2 C8			        iny
   166 2AF3 B9 60 89		        lda rx_buffer,y
   167 2AF6 C9 2C		        cmp #','
   168 2AF8 D0 2E		        bne room_gfx_fail
   169 2AFA C8			        iny
   170 2AFB 20 29 2B		        jsr room_parse_hex_byte_field
   171 2AFE B0 28		        bcs room_gfx_fail
   172 2B00 8D 38 88		        sta room_patch_y
   173 2B03 C8			        iny
   174 2B04 B9 60 89		        lda rx_buffer,y
   175 2B07 C9 2C		        cmp #','
   176 2B09 D0 1D		        bne room_gfx_fail
   177 2B0B C8			        iny
   178 2B0C 20 29 2B		        jsr room_parse_hex_byte_field
   179 2B0F B0 17		        bcs room_gfx_fail
   180 2B11 8D 39 88		        sta room_patch_width
   181 2B14 C8			        iny
   182 2B15 B9 60 89		        lda rx_buffer,y
   183 2B18 C9 2C		        cmp #','
   184 2B1A D0 0C		        bne room_gfx_fail
   185 2B1C C8			        iny
   186 2B1D 20 29 2B		        jsr room_parse_hex_byte_field
   187 2B20 B0 06		        bcs room_gfx_fail
   188 2B22 8D 3A 88		        sta room_patch_height
   189 2B25 20 BD 2B		        jsr room_fetch_graphics_patch
   190 2B28			room_gfx_fail
   191 2B28 60			        rts
   192
   193 2B29			room_parse_hex_byte_field
   194 2B29 B9 60 89		        lda rx_buffer,y
   195 2B2C 20 4A 2B		        jsr room_ascii_hex_to_nibble
   196 2B2F C9 FF		        cmp #$FF
   197 2B31 F0 15		        beq room_parse_hex_byte_fail
   198 2B33 0A			        asl
   199 2B34 0A			        asl
   200 2B35 0A			        asl
   201 2B36 0A			        asl
   202 2B37 85 8B		        sta zp_tmp1
   203 2B39 C8			        iny
   204 2B3A B9 60 89		        lda rx_buffer,y
   205 2B3D 20 4A 2B		        jsr room_ascii_hex_to_nibble
   206 2B40 C9 FF		        cmp #$FF
   207 2B42 F0 04		        beq room_parse_hex_byte_fail
   208 2B44 05 8B		        ora zp_tmp1
   209 2B46 18			        clc
   210 2B47 60			        rts
   211
   212 2B48			room_parse_hex_byte_fail
   213 2B48 38			        sec
   214 2B49 60			        rts
   215
   216 2B4A			room_ascii_hex_to_nibble
   217 2B4A C9 30		        cmp #'0'
   218 2B4C 90 20		        bcc room_ascii_hex_fail
   219 2B4E C9 3A		        cmp #'9'+1
   220 2B50 90 18		        bcc room_ascii_hex_digit
   221 2B52 C9 41		        cmp #'A'
   222 2B54 90 04		        bcc room_ascii_hex_lower_check
   223 2B56 C9 47		        cmp #'F'+1
   224 2B58 90 0C		        bcc room_ascii_hex_upper
   225 2B5A			room_ascii_hex_lower_check
   226 2B5A C9 61		        cmp #'a'
   227 2B5C 90 10		        bcc room_ascii_hex_fail
   228 2B5E C9 67		        cmp #'f'+1
   229 2B60 B0 0C		        bcs room_ascii_hex_fail
   230 2B62 38			        sec
   231 2B63 E9 57		        sbc #'a'-10
   232 2B65 60			        rts
   233
   234 2B66			room_ascii_hex_upper
   235 2B66 38			        sec
   236 2B67 E9 37		        sbc #'A'-10
   237 2B69 60			        rts
   238
   239 2B6A			room_ascii_hex_digit
   240 2B6A 38			        sec
   241 2B6B E9 30		        sbc #'0'
   242 2B6D 60			        rts
   243
   244 2B6E			room_ascii_hex_fail
   245 2B6E A9 FF		        lda #$FF
   246 2B70 60			        rts
    55 2B71			        icl 'client/graphics_patch.asm'
Source: graphics_patch.asm
     1 2B71			copy_gfx_url_to_buffer
     2 2B71 A9 65		        lda #<gfx_url_prefix
     3 2B73 85 87		        sta zp_tmp_ptr
     4 2B75 A9 34		        lda #>gfx_url_prefix
     5 2B77 85 88		        sta zp_tmp_ptr+1
     6 2B79 20 B3 28		        jsr copy_string_to_buffer
     7 2B7C A0 00		        ldy #0
     8 2B7E			gfx_find_end
     9 2B7E B9 60 88		        lda url_buffer,y
    10 2B81 F0 03		        beq gfx_append_source
    11 2B83 C8			        iny
    12 2B84 D0 F8		        bne gfx_find_end
    13
    14 2B86			gfx_append_source
    15 2B86 A2 00		        ldx #0
    16 2B88			gfx_append_source_loop
    17 2B88 BD 4F 88		        lda room_patch_source_room,x
    18 2B8B F0 09		        beq gfx_append_target_sep
    19 2B8D 99 60 88		        sta url_buffer,y
    20 2B90 C8			        iny
    21 2B91 E8			        inx
    22 2B92 E0 10		        cpx #ROOM_NAME_MAX
    23 2B94 90 F2		        bcc gfx_append_source_loop
    24
    25 2B96			gfx_append_target_sep
    26 2B96 A9 2F		        lda #'/'
    27 2B98 99 60 88		        sta url_buffer,y
    28 2B9B C8			        iny
    29 2B9C 20 C9 28		        jsr append_current_room_name
    30 2B9F A9 2F		        lda #'/'
    31 2BA1 99 60 88		        sta url_buffer,y
    32 2BA4 C8			        iny
    33 2BA5 AD 39 88		        lda room_patch_width
    34 2BA8 20 DA 28		        jsr append_hex_byte_to_buffer
    35 2BAB A9 2F		        lda #'/'
    36 2BAD 99 60 88		        sta url_buffer,y
    37 2BB0 C8			        iny
    38 2BB1 AD 3A 88		        lda room_patch_height
    39 2BB4 20 DA 28		        jsr append_hex_byte_to_buffer
    40 2BB7 A9 00		        lda #0
    41 2BB9 99 60 88		        sta url_buffer,y
    42 2BBC 60			        rts
    43
    44 2BBD			room_fetch_graphics_patch
    45 2BBD 20 71 2B		        jsr copy_gfx_url_to_buffer
    46 2BC0 AD 38 88		        lda room_patch_y
    47 2BC3 8D 3B 88		        sta room_patch_cur_y
    48 2BC6 AD 39 88		        lda room_patch_width
    49 2BC9 8D 3C 88		        sta room_patch_row_remaining
    50 2BCC AD 3A 88		        lda room_patch_height
    51 2BCF 8D 3D 88		        sta room_patch_rows_left
    52
    53 2BD2 A9 16		        lda #$16
    54 2BD4 8D 00 88		        sta debug_stage
    55 2BD7 20 8B 32		        jsr fn_open
    56 2BDA AD 03 03		        lda DSTATS
    57 2BDD 8D 01 88		        sta debug_dstats
    58 2BE0 90 02		        bcc room_patch_open_ok
    59 2BE2 38			        sec
    60 2BE3 60			        rts
    61
    62 2BE4			room_patch_open_ok
    63 2BE4 A9 F0		        lda #VIEW_TIMEOUT
    64 2BE6 8D 06 88		        sta debug_timeout_ctr
    65
    66 2BE9			room_patch_wait
    67 2BE9 AD 3D 88		        lda room_patch_rows_left
    68 2BEC F0 63		        beq room_patch_done
    69 2BEE 20 7A 29		        jsr poll_status
    70 2BF1 90 03		        bcc room_patch_status_ok
    71 2BF3 4C 56 2C		        jmp room_patch_fail_close
    72
    73 2BF6			room_patch_status_ok
    74 2BF6 AD 02 88		        lda debug_fn_error
    75 2BF9 30 03		        bmi room_patch_status_fatal
    76 2BFB 4C 01 2C		        jmp room_patch_check_data
    77
    78 2BFE			room_patch_status_fatal
    79 2BFE 4C 56 2C		        jmp room_patch_fail_close
    80
    81 2C01			room_patch_check_data
    82 2C01 AD 05 88		        lda debug_bytes_hi
    83 2C04 D0 15		        bne room_patch_read
    84 2C06 AD 04 88		        lda debug_bytes_lo
    85 2C09 D0 10		        bne room_patch_read
    86 2C0B AD 03 88		        lda debug_connected
    87 2C0E F0 46		        beq room_patch_fail_close
    88 2C10 CE 06 88		        dec debug_timeout_ctr
    89 2C13 F0 41		        beq room_patch_fail_close
    90 2C15 20 98 29		        jsr wait_one_frame
    91 2C18 4C E9 2B		        jmp room_patch_wait
    92
    93 2C1B			room_patch_read
    94 2C1B AD 05 88		        lda debug_bytes_hi
    95 2C1E F0 04		        beq room_patch_read_lo
    96 2C20 A9 60		        lda #READ_LIMIT
    97 2C22 D0 09		        bne room_patch_read_set
    98
    99 2C24			room_patch_read_lo
   100 2C24 AD 04 88		        lda debug_bytes_lo
   101 2C27 C9 60		        cmp #READ_LIMIT
   102 2C29 90 02		        bcc room_patch_read_set
   103 2C2B A9 60		        lda #READ_LIMIT
   104
   105 2C2D			room_patch_read_set
   106 2C2D 85 A1		        sta zp_fn_bytes_lo
   107 2C2F A9 00		        lda #0
   108 2C31 85 A2		        sta zp_fn_bytes_hi
   109 2C33 20 23 33		        jsr fn_read
   110 2C36 AD 03 03		        lda DSTATS
   111 2C39 8D 01 88		        sta debug_dstats
   112 2C3C 90 03		        bcc room_patch_read_ok
   113 2C3E 4C 56 2C		        jmp room_patch_fail_close
   114
   115 2C41			room_patch_read_ok
   116 2C41 A5 A3		        lda zp_rx_len
   117 2C43 8D 07 88		        sta debug_rx_len
   118 2C46 20 5B 2C		        jsr room_patch_write_chunk
   119 2C49 A9 F0		        lda #VIEW_TIMEOUT
   120 2C4B 8D 06 88		        sta debug_timeout_ctr
   121 2C4E 4C E9 2B		        jmp room_patch_wait
   122
   123 2C51			room_patch_done
   124 2C51 20 8B 33		        jsr fn_close
   125 2C54 18			        clc
   126 2C55 60			        rts
   127
   128 2C56			room_patch_fail_close
   129 2C56 20 8B 33		        jsr fn_close
   130 2C59 38			        sec
   131 2C5A 60			        rts
   132
   133 2C5B			room_patch_write_chunk
   134 2C5B A2 00		        ldx #0
   135 2C5D			room_patch_chunk_loop
   136 2C5D E4 A3		        cpx zp_rx_len
   137 2C5F F0 38		        beq room_patch_chunk_done
   138 2C61 AD 3D 88		        lda room_patch_rows_left
   139 2C64 F0 33		        beq room_patch_chunk_done
   140 2C66 AD 3C 88		        lda room_patch_row_remaining
   141 2C69 CD 39 88		        cmp room_patch_width
   142 2C6C D0 06		        bne room_patch_row_opened
   143 2C6E 20 9A 2C		        jsr room_patch_prepare_row
   144 2C71 20 03 28		        jsr demo_mem_open
   145
   146 2C74			room_patch_row_opened
   147 2C74 BD 60 89		        lda rx_buffer,x
   148 2C77 20 0F 28		        jsr demo_mem_put
   149 2C7A CE 3C 88		        dec room_patch_row_remaining
   150 2C7D D0 16		        bne room_patch_next_byte
   151 2C7F			        memb_off
Macro: MEMB_OFF [Source: vbxe_const.asm]
     1 2C7F A9 00		        lda #0
     2 2C81 85 AD		        sta zp_memb_shadow     ; shadow FIRST (NMI-safe ordering)
     3 2C83 A0 5D		        ldy #VBXE_MEMAC_B
     4 2C85 91 80		        sta (zp_vbxe_base),y
Source: graphics_patch.asm
   152 2C87 CE 3D 88		        dec room_patch_rows_left
   153 2C8A F0 09		        beq room_patch_next_byte
   154 2C8C EE 3B 88		        inc room_patch_cur_y
   155 2C8F AD 39 88		        lda room_patch_width
   156 2C92 8D 3C 88		        sta room_patch_row_remaining
   157
   158 2C95			room_patch_next_byte
   159 2C95 E8			        inx
   160 2C96 4C 5D 2C		        jmp room_patch_chunk_loop
   161
   162 2C99			room_patch_chunk_done
   163 2C99 60			        rts
   164
   165 2C9A			room_patch_prepare_row
   166 2C9A AD 3B 88		        lda room_patch_cur_y
   167 2C9D A8			        tay
   168 2C9E B9 60 95		        lda demo_row_ptr_lo,y
   169 2CA1 85 87		        sta zp_tmp_ptr
   170 2CA3 B9 28 96		        lda demo_row_ptr_hi,y
   171 2CA6 85 88		        sta zp_tmp_ptr+1
   172 2CA8 B9 F0 96		        lda demo_row_bank,y
   173 2CAB 8D 20 88		        sta demo_cursor_bank
   174 2CAE 18			        clc
   175 2CAF A5 87		        lda zp_tmp_ptr
   176 2CB1 6D 36 88		        adc room_patch_x_lo
   177 2CB4 85 87		        sta zp_tmp_ptr
   178 2CB6 A5 88		        lda zp_tmp_ptr+1
   179 2CB8 6D 37 88		        adc room_patch_x_hi
   180 2CBB 85 88		        sta zp_tmp_ptr+1
   181 2CBD 90 03		        bcc room_patch_prepare_check
   182 2CBF EE 20 88		        inc demo_cursor_bank
   183
   184 2CC2			room_patch_prepare_check
   185 2CC2 A5 88		        lda zp_tmp_ptr+1
   186 2CC4 C9 80		        cmp #$80
   187 2CC6 90 08		        bcc room_patch_prepare_done
   188 2CC8 38			        sec
   189 2CC9 E9 40		        sbc #$40
   190 2CCB 85 88		        sta zp_tmp_ptr+1
   191 2CCD EE 20 88		        inc demo_cursor_bank
   192 2CD0			room_patch_prepare_done
   193 2CD0 60			        rts
    56 2CD1			        icl 'client/image_io.asm'
Source: image_io.asm
     1 2CD1			fetch_room_image
     2 2CD1 A9 12		        lda #$12
     3 2CD3 8D 00 88		        sta debug_stage
     4 2CD6 20 8B 32		        jsr fn_open
     5 2CD9 AD 03 03		        lda DSTATS
     6 2CDC 8D 01 88		        sta debug_dstats
     7 2CDF 90 03		        bcc fetch_open_ok
     8 2CE1 4C 32 2D		        jmp fetch_fail
     9
    10 2CE4			fetch_open_ok
    11 2CE4 A9 13		        lda #$13
    12 2CE6 8D 00 88		        sta debug_stage
    13 2CE9 20 34 2D		        jsr read_header_chunk
    14 2CEC 90 03		        bcc fetch_header_ok
    15 2CEE 4C 2F 2D		        jmp fetch_fail_close
    16
    17 2CF1			fetch_header_ok
    18 2CF1 AD 0D 88		        lda img_height
    19 2CF4 8D 07 88		        sta debug_rx_len
    20
    21 2CF7 A9 14		        lda #$14
    22 2CF9 8D 00 88		        sta debug_stage
    23 2CFC 20 D7 2D		        jsr read_palette_stream
    24 2CFF 90 03		        bcc fetch_palette_ok
    25 2D01 4C 2F 2D		        jmp fetch_fail_close
    26
    27 2D04			fetch_palette_ok
    28 2D04 20 D4 2E		        jsr init_image_write
    29 2D07 20 B5 27		        jsr demo_build_row_table
    30 2D0A AD 0C 88		        lda img_pal_leftover
    31 2D0D 85 A3		        sta zp_rx_len
    32 2D0F 20 05 2F		        jsr write_pixel_chunk
    33
    34 2D12 A9 15		        lda #$15
    35 2D14 8D 00 88		        sta debug_stage
    36 2D17 20 7F 2E		        jsr read_pixels_stream
    37 2D1A 90 03		        bcc fetch_pixels_ok
    38 2D1C 4C 2F 2D		        jmp fetch_fail_close
    39
    40 2D1F			fetch_pixels_ok
    41 2D1F 20 8B 33		        jsr fn_close
    42 2D22 A9 60		        lda #<img_pal_buf
    43 2D24 85 87		        sta zp_tmp_ptr
    44 2D26 A9 8A		        lda #>img_pal_buf
    45 2D28 85 88		        sta zp_tmp_ptr+1
    46 2D2A 20 E0 2F		        jsr set_image_palette
    47 2D2D 18			        clc
    48 2D2E 60			        rts
    49
    50 2D2F			fetch_fail_close
    51 2D2F 20 8B 33		        jsr fn_close
    52 2D32			fetch_fail
    53 2D32 38			        sec
    54 2D33 60			        rts
    55
    56 2D34			read_header_chunk
    57 2D34 A9 F0		        lda #VIEW_TIMEOUT
    58 2D36 8D 06 88		        sta debug_timeout_ctr
    59
    60 2D39 A9 03		        lda #3
    61 2D3B 85 A1		        sta zp_fn_bytes_lo
    62 2D3D 8D 04 88		        sta debug_bytes_lo
    63 2D40 A9 00		        lda #0
    64 2D42 85 A2		        sta zp_fn_bytes_hi
    65 2D44 8D 05 88		        sta debug_bytes_hi
    66 2D47 20 23 33		        jsr fn_read
    67 2D4A AD 03 03		        lda DSTATS
    68 2D4D 8D 01 88		        sta debug_dstats
    69 2D50 90 47		        bcc hdr_read_ok
    70
    71 2D52			hdr_wait
    72 2D52 20 7A 29		        jsr poll_status
    73 2D55 90 03		        bcc hdr_status_ok
    74 2D57 4C D5 2D		        jmp hdr_err
    75
    76 2D5A			hdr_status_ok
    77 2D5A AD 02 88		        lda debug_fn_error
    78 2D5D F0 08		        beq hdr_check_bytes
    79 2D5F C9 88		        cmp #136
    80 2D61 F0 72		        beq hdr_err
    81 2D63 C9 80		        cmp #128
    82 2D65 B0 6E		        bcs hdr_err
    83
    84 2D67			hdr_check_bytes
    85 2D67 AD 05 88		        lda debug_bytes_hi
    86 2D6A D0 17		        bne hdr_ready
    87 2D6C AD 04 88		        lda debug_bytes_lo
    88 2D6F C9 03		        cmp #3
    89 2D71 B0 10		        bcs hdr_ready
    90 2D73 AD 03 88		        lda debug_connected
    91 2D76 F0 5D		        beq hdr_err
    92 2D78 CE 06 88		        dec debug_timeout_ctr
    93 2D7B F0 58		        beq hdr_err
    94 2D7D 20 98 29		        jsr wait_one_frame
    95 2D80 4C 52 2D		        jmp hdr_wait
    96
    97 2D83			hdr_ready
    98 2D83 A9 03		        lda #3
    99 2D85 85 A1		        sta zp_fn_bytes_lo
   100 2D87 A9 00		        lda #0
   101 2D89 85 A2		        sta zp_fn_bytes_hi
   102 2D8B 20 23 33		        jsr fn_read
   103 2D8E AD 03 03		        lda DSTATS
   104 2D91 8D 01 88		        sta debug_dstats
   105 2D94 90 03		        bcc hdr_read_ok
   106 2D96 4C D5 2D		        jmp hdr_err
   107
   108 2D99			hdr_read_ok
   109 2D99 AD 60 89		        lda rx_buffer
   110 2D9C 8D 08 88		        sta img_width
   111 2D9F AD 61 89		        lda rx_buffer+1
   112 2DA2 8D 09 88		        sta img_width+1
   113 2DA5 AD 62 89		        lda rx_buffer+2
   114 2DA8 8D 0D 88		        sta img_height
   115
   116 2DAB AD 09 88		        lda img_width+1
   117 2DAE C9 02		        cmp #2
   118 2DB0 90 0F		        bcc hdr_chk_lo
   119 2DB2 F0 03		        beq hdr_chk_hi
   120 2DB4 4C D5 2D		        jmp hdr_err
   121
   122 2DB7			hdr_chk_hi
   123 2DB7 AD 08 88		        lda img_width
   124 2DBA C9 41		        cmp #$41
   125 2DBC B0 17		        bcs hdr_err
   126 2DBE 4C C8 2D		        jmp hdr_chk_h
   127
   128 2DC1			hdr_chk_lo
   129 2DC1 AD 08 88		        lda img_width
   130 2DC4 C9 08		        cmp #8
   131 2DC6 90 0D		        bcc hdr_err
   132
   133 2DC8			hdr_chk_h
   134 2DC8 AD 0D 88		        lda img_height
   135 2DCB C9 08		        cmp #8
   136 2DCD 90 06		        bcc hdr_err
   137 2DCF C9 D1		        cmp #209
   138 2DD1 B0 02		        bcs hdr_err
   139 2DD3 18			        clc
   140 2DD4 60			        rts
   141 2DD5			hdr_err
   142 2DD5 38			        sec
   143 2DD6 60			        rts
   144
   145 2DD7			read_palette_stream
   146 2DD7 A9 60		        lda #<img_pal_buf
   147 2DD9 85 87		        sta zp_tmp_ptr
   148 2DDB A9 8A		        lda #>img_pal_buf
   149 2DDD 85 88		        sta zp_tmp_ptr+1
   150 2DDF A9 00		        lda #0
   151 2DE1 8D 0A 88		        sta img_pal_count
   152 2DE4 8D 0B 88		        sta img_pal_count+1
   153 2DE7 8D 0C 88		        sta img_pal_leftover
   154 2DEA A9 F0		        lda #VIEW_TIMEOUT
   155 2DEC 8D 06 88		        sta debug_timeout_ctr
   156
   157 2DEF			pal_wait
   158 2DEF 20 7A 29		        jsr poll_status
   159 2DF2 90 03		        bcc pal_status_ok
   160 2DF4 4C 78 2E		        jmp pal_err
   161
   162 2DF7			pal_status_ok
   163 2DF7 AD 02 88		        lda debug_fn_error
   164 2DFA C9 88		        cmp #136
   165 2DFC F0 7A		        beq pal_err
   166 2DFE C9 80		        cmp #128
   167 2E00 B0 76		        bcs pal_err
   168 2E02 AD 04 88		        lda debug_bytes_lo
   169 2E05 0D 05 88		        ora debug_bytes_hi
   170 2E08 F0 0E		        beq pal_no_data
   171
   172 2E0A 20 23 33		        jsr fn_read
   173 2E0D AD 03 03		        lda DSTATS
   174 2E10 8D 01 88		        sta debug_dstats
   175 2E13 90 0E		        bcc pal_read_ok
   176 2E15 4C 78 2E		        jmp pal_err
   177
   178 2E18			pal_no_data
   179 2E18 CE 06 88		        dec debug_timeout_ctr
   180 2E1B F0 5B		        beq pal_err
   181 2E1D 20 98 29		        jsr wait_one_frame
   182 2E20 4C EF 2D		        jmp pal_wait
   183
   184 2E23			pal_read_ok
   185 2E23 A5 A3		        lda zp_rx_len
   186 2E25 F0 C8		        beq pal_wait
   187 2E27 A9 F0		        lda #VIEW_TIMEOUT
   188 2E29 8D 06 88		        sta debug_timeout_ctr
   189
   190 2E2C A0 00		        ldy #0
   191 2E2E			pal_copy
   192 2E2E C4 A3		        cpy zp_rx_len
   193 2E30 F0 24		        beq pal_check_done
   194 2E32 B9 60 89		        lda rx_buffer,y
   195 2E35 84 8D		        sty zp_tmp3
   196 2E37 A0 00		        ldy #0
   197 2E39 91 87		        sta (zp_tmp_ptr),y
   198 2E3B A4 8D		        ldy zp_tmp3
   199 2E3D E6 87		        inc zp_tmp_ptr
   200 2E3F D0 02		        bne pal_ptr_ok
   201 2E41 E6 88		        inc zp_tmp_ptr+1
   202 2E43			pal_ptr_ok
   203 2E43 EE 0A 88		        inc img_pal_count
   204 2E46 D0 03		        bne pal_count_ok
   205 2E48 EE 0B 88		        inc img_pal_count+1
   206 2E4B			pal_count_ok
   207 2E4B AD 0B 88		        lda img_pal_count+1
   208 2E4E C9 03		        cmp #3
   209 2E50 B0 07		        bcs pal_done
   210 2E52 C8			        iny
   211 2E53 4C 2E 2E		        jmp pal_copy
   212
   213 2E56			pal_check_done
   214 2E56 4C EF 2D		        jmp pal_wait
   215
   216 2E59			pal_done
   217 2E59 C8			        iny
   218 2E5A C4 A3		        cpy zp_rx_len
   219 2E5C B0 13		        bcs pal_no_left
   220 2E5E A2 00		        ldx #0
   221 2E60			pal_shift
   222 2E60 B9 60 89		        lda rx_buffer,y
   223 2E63 9D 60 89		        sta rx_buffer,x
   224 2E66 C8			        iny
   225 2E67 E8			        inx
   226 2E68 C4 A3		        cpy zp_rx_len
   227 2E6A 90 F4		        bcc pal_shift
   228 2E6C 8E 0C 88		        stx img_pal_leftover
   229 2E6F 18			        clc
   230 2E70 60			        rts
   231
   232 2E71			pal_no_left
   233 2E71 A9 00		        lda #0
   234 2E73 8D 0C 88		        sta img_pal_leftover
   235 2E76 18			        clc
   236 2E77 60			        rts
   237 2E78			pal_err
   238 2E78 A9 00		        lda #0
   239 2E7A 8D 0C 88		        sta img_pal_leftover
   240 2E7D 38			        sec
   241 2E7E 60			        rts
   242
   243 2E7F			read_pixels_stream
   244 2E7F A9 F0		        lda #VIEW_TIMEOUT
   245 2E81 8D 06 88		        sta debug_timeout_ctr
   246 2E84			pix_wait
   247 2E84 20 7A 29		        jsr poll_status
   248 2E87 90 03		        bcc pix_status_ok
   249 2E89 4C D2 2E		        jmp pix_err
   250
   251 2E8C			pix_status_ok
   252 2E8C AD 02 88		        lda debug_fn_error
   253 2E8F 30 03		        bmi pix_status_fatal
   254 2E91 4C 9B 2E		        jmp pix_check_data
   255
   256 2E94			pix_status_fatal
   257 2E94 C9 88		        cmp #136
   258 2E96 F0 38		        beq pix_done
   259 2E98 4C D2 2E		        jmp pix_err
   260
   261 2E9B			pix_check_data
   262 2E9B AD 03 88		        lda debug_connected
   263 2E9E F0 30		        beq pix_done
   264 2EA0 AD 04 88		        lda debug_bytes_lo
   265 2EA3 0D 05 88		        ora debug_bytes_hi
   266 2EA6 D0 0B		        bne pix_read
   267 2EA8 CE 06 88		        dec debug_timeout_ctr
   268 2EAB F0 23		        beq pix_done
   269 2EAD 20 98 29		        jsr wait_one_frame
   270 2EB0 4C 84 2E		        jmp pix_wait
   271
   272 2EB3			pix_read
   273 2EB3 20 23 33		        jsr fn_read
   274 2EB6 AD 03 03		        lda DSTATS
   275 2EB9 8D 01 88		        sta debug_dstats
   276 2EBC 90 03		        bcc pix_read_ok
   277 2EBE 4C D0 2E		        jmp pix_done
   278
   279 2EC1			pix_read_ok
   280 2EC1 A5 A3		        lda zp_rx_len
   281 2EC3 F0 BF		        beq pix_wait
   282 2EC5 A9 F0		        lda #VIEW_TIMEOUT
   283 2EC7 8D 06 88		        sta debug_timeout_ctr
   284 2ECA 20 05 2F		        jsr write_pixel_chunk
   285 2ECD 4C 84 2E		        jmp pix_wait
   286
   287 2ED0			pix_done
   288 2ED0 18			        clc
   289 2ED1 60			        rts
   290 2ED2			pix_err
   291 2ED2 38			        sec
   292 2ED3 60			        rts
   293
   294 2ED4			init_image_write
   295 2ED4 A9 00		        lda #<VRAM_IMG_BASE
   296 2ED6 8D 0E 88		        sta img_vram
   297 2ED9 A9 80		        lda #>VRAM_IMG_BASE
   298 2EDB 8D 0F 88		        sta img_vram+1
   299 2EDE A9 00		        lda #0
   300 2EE0 8D 10 88		        sta img_vram+2
   301
   302 2EE3 AD 10 88		        lda img_vram+2
   303 2EE6 0A			        asl
   304 2EE7 0A			        asl
   305 2EE8 8D 11 88		        sta img_wr_bank
   306 2EEB AD 0F 88		        lda img_vram+1
   307 2EEE 0A			        asl
   308 2EEF 2E 11 88		        rol img_wr_bank
   309 2EF2 0A			        asl
   310 2EF3 2E 11 88		        rol img_wr_bank
   311
   312 2EF6 AD 0E 88		        lda img_vram
   313 2EF9 85 AB		        sta zp_img_ptr
   314 2EFB AD 0F 88		        lda img_vram+1
   315 2EFE 29 3F		        and #$3F
   316 2F00 09 40		        ora #$40
   317 2F02 85 AC		        sta zp_img_ptr+1
   318 2F04 60			        rts
   319
   320 2F05			write_pixel_chunk
   321 2F05 A5 A3		        lda zp_rx_len
   322 2F07 F0 41		        beq write_done
   323
   324 2F09 78			        sei
   325 2F0A AD 11 88		        lda img_wr_bank
   326 2F0D 09 80		        ora #$80
   327 2F0F 85 AD		        sta zp_memb_shadow
   328 2F11 A0 5D		        ldy #VBXE_MEMAC_B
   329 2F13 91 80		        sta (zp_vbxe_base),y
   330
   331 2F15 A2 00		        ldx #0
   332 2F17			write_loop
   333 2F17 A0 00		        ldy #0
   334 2F19 BD 60 89		        lda rx_buffer,x
   335 2F1C 91 AB		        sta (zp_img_ptr),y
   336 2F1E E6 AB		        inc zp_img_ptr
   337 2F20 D0 1A		        bne write_next
   338 2F22 E6 AC		        inc zp_img_ptr+1
   339 2F24 A5 AC		        lda zp_img_ptr+1
   340 2F26 C9 80		        cmp #$80
   341 2F28 D0 12		        bne write_next
   342 2F2A A9 40		        lda #$40
   343 2F2C 85 AC		        sta zp_img_ptr+1
   344 2F2E EE 11 88		        inc img_wr_bank
   345 2F31 AD 11 88		        lda img_wr_bank
   346 2F34 09 80		        ora #$80
   347 2F36 85 AD		        sta zp_memb_shadow
   348 2F38 A0 5D		        ldy #VBXE_MEMAC_B
   349 2F3A 91 80		        sta (zp_vbxe_base),y
   350
   351 2F3C			write_next
   352 2F3C E8			        inx
   353 2F3D E4 A3		        cpx zp_rx_len
   354 2F3F D0 D6		        bne write_loop
   355 2F41			        memb_off
Macro: MEMB_OFF [Source: vbxe_const.asm]
     1 2F41 A9 00		        lda #0
     2 2F43 85 AD		        sta zp_memb_shadow     ; shadow FIRST (NMI-safe ordering)
     3 2F45 A0 5D		        ldy #VBXE_MEMAC_B
     4 2F47 91 80		        sta (zp_vbxe_base),y
Source: image_io.asm
   356 2F49 58			        cli
   357 2F4A			write_done
   358 2F4A 60			        rts
    57 2F4B			        icl 'client/demo_image.asm'
Source: demo_image.asm
     1 2F4B			generate_demo_image
     2 2F4B AD 14 88		        lda demo_phase
     3 2F4E 18			        clc
     4 2F4F 69 11		        adc #$11
     5 2F51 8D 14 88		        sta demo_phase
     6
     7 2F54 A9 C8		        lda #DEMO_HEIGHT
     8 2F56 8D 0D 88		        sta img_height
     9 2F59 20 D4 2E		        jsr init_image_write
    10 2F5C 20 B5 27		        jsr demo_build_row_table
    11 2F5F 20 97 2F		        jsr build_demo_palette
    12
    13 2F62 A9 00		        lda #0
    14 2F64 8D 15 88		        sta demo_row
    15 2F67			demo_row_loop
    16 2F67 A9 00		        lda #0
    17 2F69 8D 16 88		        sta demo_x_base
    18 2F6C A9 A0		        lda #160
    19 2F6E 8D 17 88		        sta demo_chunk_len
    20 2F71 20 C2 2F		        jsr fill_demo_chunk
    21
    22 2F74 A9 A0		        lda #160
    23 2F76 8D 16 88		        sta demo_x_base
    24 2F79 A9 A0		        lda #160
    25 2F7B 8D 17 88		        sta demo_chunk_len
    26 2F7E 20 C2 2F		        jsr fill_demo_chunk
    27
    28 2F81 EE 15 88		        inc demo_row
    29 2F84 AD 15 88		        lda demo_row
    30 2F87 C9 C8		        cmp #DEMO_HEIGHT
    31 2F89 D0 DC		        bne demo_row_loop
    32
    33 2F8B A9 60		        lda #<img_pal_buf
    34 2F8D 85 87		        sta zp_tmp_ptr
    35 2F8F A9 8A		        lda #>img_pal_buf
    36 2F91 85 88		        sta zp_tmp_ptr+1
    37 2F93 20 E0 2F		        jsr set_image_palette
    38 2F96 60			        rts
    39
    40 2F97			build_demo_palette
    41 2F97 A9 60		        lda #<img_pal_buf
    42 2F99 85 87		        sta zp_tmp_ptr
    43 2F9B A9 8A		        lda #>img_pal_buf
    44 2F9D 85 88		        sta zp_tmp_ptr+1
    45 2F9F A2 00		        ldx #0
    46 2FA1			demo_pal_loop
    47 2FA1 8A			        txa
    48 2FA2 A0 00		        ldy #0
    49 2FA4 91 87		        sta (zp_tmp_ptr),y
    50 2FA6 8A			        txa
    51 2FA7 0A			        asl
    52 2FA8 A0 01		        ldy #1
    53 2FAA 91 87		        sta (zp_tmp_ptr),y
    54 2FAC 8A			        txa
    55 2FAD 49 FF		        eor #$FF
    56 2FAF A0 02		        ldy #2
    57 2FB1 91 87		        sta (zp_tmp_ptr),y
    58 2FB3 18			        clc
    59 2FB4 A5 87		        lda zp_tmp_ptr
    60 2FB6 69 03		        adc #3
    61 2FB8 85 87		        sta zp_tmp_ptr
    62 2FBA 90 02		        bcc demo_pal_next
    63 2FBC E6 88		        inc zp_tmp_ptr+1
    64 2FBE			demo_pal_next
    65 2FBE E8			        inx
    66 2FBF D0 E0		        bne demo_pal_loop
    67 2FC1 60			        rts
    68
    69 2FC2			fill_demo_chunk
    70 2FC2 A2 00		        ldx #0
    71 2FC4			demo_fill_loop
    72 2FC4 8A			        txa
    73 2FC5 18			        clc
    74 2FC6 6D 16 88		        adc demo_x_base
    75 2FC9 4D 15 88		        eor demo_row
    76 2FCC 18			        clc
    77 2FCD 6D 14 88		        adc demo_phase
    78 2FD0 09 08		        ora #8
    79 2FD2 9D 60 89		        sta rx_buffer,x
    80 2FD5 E8			        inx
    81 2FD6 EC 17 88		        cpx demo_chunk_len
    82 2FD9 D0 E9		        bne demo_fill_loop
    83 2FDB 86 A3		        stx zp_rx_len
    84 2FDD 4C 05 2F		        jmp write_pixel_chunk
    85
    86 2FE0			set_image_palette
    87 2FE0 A0 45		        ldy #VBXE_PSEL
    88 2FE2 A9 01		        lda #1
    89 2FE4 91 80		        sta (zp_vbxe_base),y
    90
    91 2FE6 A0 44		        ldy #VBXE_CSEL
    92 2FE8 A9 00		        lda #0
    93 2FEA 91 80		        sta (zp_vbxe_base),y
    94 2FEC A0 46		        ldy #VBXE_CR
    95 2FEE A9 00		        lda #0
    96 2FF0 91 80		        sta (zp_vbxe_base),y
    97 2FF2 A0 47		        ldy #VBXE_CG
    98 2FF4 91 80		        sta (zp_vbxe_base),y
    99 2FF6 A0 48		        ldy #VBXE_CB
   100 2FF8 91 80		        sta (zp_vbxe_base),y
   101
   102 2FFA A0 44		        ldy #VBXE_CSEL
   103 2FFC A9 01		        lda #COL_WHITE
   104 2FFE 91 80		        sta (zp_vbxe_base),y
   105 3000 A0 46		        ldy #VBXE_CR
   106 3002 A9 FF		        lda #$FF
   107 3004 91 80		        sta (zp_vbxe_base),y
   108 3006 A0 47		        ldy #VBXE_CG
   109 3008 91 80		        sta (zp_vbxe_base),y
   110 300A A0 48		        ldy #VBXE_CB
   111 300C 91 80		        sta (zp_vbxe_base),y
   112
   113 300E A0 44		        ldy #VBXE_CSEL
   114 3010 A9 05		        lda #COL_RED
   115 3012 91 80		        sta (zp_vbxe_base),y
   116 3014 A0 46		        ldy #VBXE_CR
   117 3016 A9 FF		        lda #$FF
   118 3018 91 80		        sta (zp_vbxe_base),y
   119 301A A0 47		        ldy #VBXE_CG
   120 301C A9 00		        lda #0
   121 301E 91 80		        sta (zp_vbxe_base),y
   122 3020 A0 48		        ldy #VBXE_CB
   123 3022 91 80		        sta (zp_vbxe_base),y
   124
   125 3024 A0 44		        ldy #VBXE_CSEL
   126 3026 A9 08		        lda #8
   127 3028 91 80		        sta (zp_vbxe_base),y
   128
   129 302A 18			        clc
   130 302B A5 87		        lda zp_tmp_ptr
   131 302D 69 18		        adc #24
   132 302F 85 87		        sta zp_tmp_ptr
   133 3031 90 02		        bcc pal_skip_ok
   134 3033 E6 88		        inc zp_tmp_ptr+1
   135 3035			pal_skip_ok
   136 3035 A2 08		        ldx #8
   137 3037			setpal_loop
   138 3037 A0 00		        ldy #0
   139 3039 B1 87		        lda (zp_tmp_ptr),y
   140 303B A0 46		        ldy #VBXE_CR
   141 303D 91 80		        sta (zp_vbxe_base),y
   142 303F A0 01		        ldy #1
   143 3041 B1 87		        lda (zp_tmp_ptr),y
   144 3043 A0 47		        ldy #VBXE_CG
   145 3045 91 80		        sta (zp_vbxe_base),y
   146 3047 A0 02		        ldy #2
   147 3049 B1 87		        lda (zp_tmp_ptr),y
   148 304B A0 48		        ldy #VBXE_CB
   149 304D 91 80		        sta (zp_vbxe_base),y
   150 304F 18			        clc
   151 3050 A5 87		        lda zp_tmp_ptr
   152 3052 69 03		        adc #3
   153 3054 85 87		        sta zp_tmp_ptr
   154 3056 90 02		        bcc setpal_next
   155 3058 E6 88		        inc zp_tmp_ptr+1
   156 305A			setpal_next
   157 305A E8			        inx
   158 305B D0 DA		        bne setpal_loop
   159 305D 60			        rts
    58 305E			        icl 'client/display_debug.asm'
Source: display_debug.asm
     1 305E			detect_vbxe
     2 305E A9 00		        lda #<$D600
     3 3060 85 80		        sta zp_vbxe_base
     4 3062 A9 D6		        lda #>$D600
     5 3064 85 81		        sta zp_vbxe_base+1
     6 3066 A0 40		        ldy #VBXE_CORE_VER
     7 3068 A9 00		        lda #0
     8 306A 91 80		        sta (zp_vbxe_base),y
     9 306C B1 80		        lda (zp_vbxe_base),y
    10 306E C9 10		        cmp #FX_CORE_VER
    11 3070 F0 16		        beq dv_ok
    12
    13 3072 A9 00		        lda #<$D700
    14 3074 85 80		        sta zp_vbxe_base
    15 3076 A9 D7		        lda #>$D700
    16 3078 85 81		        sta zp_vbxe_base+1
    17 307A A0 40		        ldy #VBXE_CORE_VER
    18 307C A9 00		        lda #0
    19 307E 91 80		        sta (zp_vbxe_base),y
    20 3080 B1 80		        lda (zp_vbxe_base),y
    21 3082 C9 10		        cmp #FX_CORE_VER
    22 3084 F0 02		        beq dv_ok
    23 3086 18			        clc
    24 3087 60			        rts
    25 3088			dv_ok
    26 3088 38			        sec
    27 3089 60			        rts
    28
    29 308A			show_fullscreen
    30 308A			        memb_on 0
Macro: MEMB_ON [Source: vbxe_const.asm]
     1 308A A9 80		        lda #$80+0
     2 308C 85 AD		        sta zp_memb_shadow     ; shadow FIRST (NMI-safe ordering)
     3 308E A0 5D		        ldy #VBXE_MEMAC_B
     4 3090 91 80		        sta (zp_vbxe_base),y
Source: display_debug.asm
    31 3092 A2 00		        ldx #0
    32
    33 3094 A9 74		        lda #<(XDLC_OVOFF|XDLC_MAPOFF|XDLC_RPTL|XDLC_OVADR|XDLC_CHBASE|XDLC_OVATT)
    34 3096 9D 00 54		        sta MEMB_XDL,x
    35 3099 E8			        inx
    36 309A A9 09		        lda #>(XDLC_OVOFF|XDLC_MAPOFF|XDLC_RPTL|XDLC_OVADR|XDLC_CHBASE|XDLC_OVATT)
    37 309C 9D 00 54		        sta MEMB_XDL,x
    38 309F E8			        inx
    39 30A0 A9 17		        lda #24-1
    40 30A2 9D 00 54		        sta MEMB_XDL,x
    41 30A5 E8			        inx
    42 30A6 A9 00		        lda #<VRAM_SCREEN
    43 30A8 9D 00 54		        sta MEMB_XDL,x
    44 30AB E8			        inx
    45 30AC A9 00		        lda #>VRAM_SCREEN
    46 30AE 9D 00 54		        sta MEMB_XDL,x
    47 30B1 E8			        inx
    48 30B2 A9 00		        lda #0
    49 30B4 9D 00 54		        sta MEMB_XDL,x
    50 30B7 E8			        inx
    51 30B8 A9 A0		        lda #<SCR_STRIDE
    52 30BA 9D 00 54		        sta MEMB_XDL,x
    53 30BD E8			        inx
    54 30BE A9 00		        lda #>SCR_STRIDE
    55 30C0 9D 00 54		        sta MEMB_XDL,x
    56 30C3 E8			        inx
    57 30C4 A9 04		        lda #CHBASE_VAL
    58 30C6 9D 00 54		        sta MEMB_XDL,x
    59 30C9 E8			        inx
    60 30CA A9 11		        lda #$11
    61 30CC 9D 00 54		        sta MEMB_XDL,x
    62 30CF E8			        inx
    63 30D0 A9 FF		        lda #$FF
    64 30D2 9D 00 54		        sta MEMB_XDL,x
    65 30D5 E8			        inx
    66
    67 30D6 A9 72		        lda #<(XDLC_GMON|XDLC_MAPOFF|XDLC_RPTL|XDLC_OVADR|XDLC_OVATT)
    68 30D8 9D 00 54		        sta MEMB_XDL,x
    69 30DB E8			        inx
    70 30DC A9 08		        lda #>(XDLC_GMON|XDLC_MAPOFF|XDLC_RPTL|XDLC_OVADR|XDLC_OVATT)
    71 30DE 9D 00 54		        sta MEMB_XDL,x
    72 30E1 E8			        inx
    73 30E2 AD 0D 88		        lda img_height
    74 30E5 38			        sec
    75 30E6 E9 01		        sbc #1
    76 30E8 9D 00 54		        sta MEMB_XDL,x
    77 30EB E8			        inx
    78 30EC AD 0E 88		        lda img_vram
    79 30EF 9D 00 54		        sta MEMB_XDL,x
    80 30F2 E8			        inx
    81 30F3 AD 0F 88		        lda img_vram+1
    82 30F6 9D 00 54		        sta MEMB_XDL,x
    83 30F9 E8			        inx
    84 30FA AD 10 88		        lda img_vram+2
    85 30FD 9D 00 54		        sta MEMB_XDL,x
    86 3100 E8			        inx
    87 3101 A9 40		        lda #<320
    88 3103 9D 00 54		        sta MEMB_XDL,x
    89 3106 E8			        inx
    90 3107 A9 01		        lda #>320
    91 3109 9D 00 54		        sta MEMB_XDL,x
    92 310C E8			        inx
    93 310D A9 11		        lda #$11
    94 310F 9D 00 54		        sta MEMB_XDL,x
    95 3112 E8			        inx
    96 3113 A9 FF		        lda #$FF
    97 3115 9D 00 54		        sta MEMB_XDL,x
    98 3118 E8			        inx
    99
   100 3119 A9 04		        lda #<(XDLC_OVOFF|XDLC_END)
   101 311B 9D 00 54		        sta MEMB_XDL,x
   102 311E E8			        inx
   103 311F A9 80		        lda #>(XDLC_OVOFF|XDLC_END)
   104 3121 9D 00 54		        sta MEMB_XDL,x
   105
   106 3124			        memb_off
Macro: MEMB_OFF [Source: vbxe_const.asm]
     1 3124 A9 00		        lda #0
     2 3126 85 AD		        sta zp_memb_shadow     ; shadow FIRST (NMI-safe ordering)
     3 3128 A0 5D		        ldy #VBXE_MEMAC_B
     4 312A 91 80		        sta (zp_vbxe_base),y
Source: display_debug.asm
   107
   108 312C A0 41		        ldy #VBXE_XDL_ADR0
   109 312E A9 00		        lda #<VRAM_XDL
   110 3130 91 80		        sta (zp_vbxe_base),y
   111 3132 C8			        iny
   112 3133 A9 14		        lda #>VRAM_XDL
   113 3135 91 80		        sta (zp_vbxe_base),y
   114 3137 C8			        iny
   115 3138 A9 00		        lda #0
   116 313A 91 80		        sta (zp_vbxe_base),y
   117
   118 313C A0 40		        ldy #VBXE_VCTL
   119 313E A9 03		        lda #VC_XDL_ENABLED|VC_XCOLOR
   120 3140 91 80		        sta (zp_vbxe_base),y
   121 3142 60			        rts
   122
   123 3143			print_record
   124 3143 8D 44 03		        sta ICBAL
   125 3146 8E 45 03		        stx ICBAH
   126 3149 8C 48 03		        sty ICBLL
   127 314C A9 00		        lda #0
   128 314E 8D 49 03		        sta ICBLH
   129 3151 A9 09		        lda #$09
   130 3153 8D 42 03		        sta ICCOM
   131 3156 A2 00		        ldx #0
   132 3158 4C 56 E4		        jmp CIOV
   133
   134 315B			nibble_to_hex
   135 315B 29 0F		        and #$0F
   136 315D C9 0A		        cmp #10
   137 315F 90 03		        bcc nibble_digit
   138 3161 18			        clc
   139 3162 69 06		        adc #6
   140 3164			nibble_digit
   141 3164 18			        clc
   142 3165 69 30		        adc #'0'
   143 3167 60			        rts
   144
   145 3168			write_dbg_hex
   146 3168 48			        pha
   147 3169 4A			        lsr
   148 316A 4A			        lsr
   149 316B 4A			        lsr
   150 316C 4A			        lsr
   151 316D 20 5B 31		        jsr nibble_to_hex
   152 3170 9D 18 36		        sta dbg_line,x
   153 3173 E8			        inx
   154 3174 68			        pla
   155 3175 29 0F		        and #$0F
   156 3177 20 5B 31		        jsr nibble_to_hex
   157 317A 9D 18 36		        sta dbg_line,x
   158 317D 60			        rts
   159
   160 317E			report_failure
   161 317E A9 22		        lda #$22
   162 3180 8D 2F 02		        sta SDMCTL
   163
   164 3183 AD 00 88		        lda debug_stage
   165 3186 C9 11		        cmp #$11
   166 3188 F0 10		        beq report_no_vbxe
   167 318A C9 12		        cmp #$12
   168 318C B0 18		        bcs report_img_fail
   169
   170 318E A9 F6		        lda #<msg_text_fail
   171 3190 A2 34		        ldx #>msg_text_fail
   172 3192 A0 12		        ldy #msg_text_fail_end-msg_text_fail
   173 3194 20 43 31		        jsr print_record
   174 3197 4C AF 31		        jmp report_stage
   175
   176 319A			report_no_vbxe
   177 319A A9 1B		        lda #<msg_no_vbxe
   178 319C A2 35		        ldx #>msg_no_vbxe
   179 319E A0 12		        ldy #msg_no_vbxe_end-msg_no_vbxe
   180 31A0 20 43 31		        jsr print_record
   181 31A3 4C 1F 32		        jmp report_dbg
   182
   183 31A6			report_img_fail
   184 31A6 A9 08		        lda #<msg_img_fail
   185 31A8 A2 35		        ldx #>msg_img_fail
   186 31AA A0 13		        ldy #msg_img_fail_end-msg_img_fail
   187 31AC 20 43 31		        jsr print_record
   188
   189 31AF			report_stage
   190 31AF AD 00 88		        lda debug_stage
   191 31B2 C9 01		        cmp #1
   192 31B4 D0 0C		        bne report_stage_2
   193 31B6 A9 99		        lda #<msg_stage_text_open
   194 31B8 A2 35		        ldx #>msg_stage_text_open
   195 31BA A0 11		        ldy #msg_stage_text_open_end-msg_stage_text_open
   196 31BC 20 43 31		        jsr print_record
   197 31BF 4C 1F 32		        jmp report_dbg
   198 31C2			report_stage_2
   199 31C2 C9 02		        cmp #2
   200 31C4 D0 0C		        bne report_stage_3
   201 31C6 A9 AA		        lda #<msg_stage_text_wait
   202 31C8 A2 35		        ldx #>msg_stage_text_wait
   203 31CA A0 11		        ldy #msg_stage_text_wait_end-msg_stage_text_wait
   204 31CC 20 43 31		        jsr print_record
   205 31CF 4C 1F 32		        jmp report_dbg
   206 31D2			report_stage_3
   207 31D2 C9 03		        cmp #3
   208 31D4 D0 0C		        bne report_stage_4
   209 31D6 A9 BB		        lda #<msg_stage_text_read
   210 31D8 A2 35		        ldx #>msg_stage_text_read
   211 31DA A0 11		        ldy #msg_stage_text_read_end-msg_stage_text_read
   212 31DC 20 43 31		        jsr print_record
   213 31DF 4C 1F 32		        jmp report_dbg
   214 31E2			report_stage_4
   215 31E2 C9 12		        cmp #$12
   216 31E4 D0 0C		        bne report_stage_5
   217 31E6 A9 CC		        lda #<msg_stage_img_open
   218 31E8 A2 35		        ldx #>msg_stage_img_open
   219 31EA A0 12		        ldy #msg_stage_img_open_end-msg_stage_img_open
   220 31EC 20 43 31		        jsr print_record
   221 31EF 4C 1F 32		        jmp report_dbg
   222 31F2			report_stage_5
   223 31F2 C9 13		        cmp #$13
   224 31F4 D0 0C		        bne report_stage_6
   225 31F6 A9 DE		        lda #<msg_stage_hdr
   226 31F8 A2 35		        ldx #>msg_stage_hdr
   227 31FA A0 13		        ldy #msg_stage_hdr_end-msg_stage_hdr
   228 31FC 20 43 31		        jsr print_record
   229 31FF 4C 1F 32		        jmp report_dbg
   230 3202			report_stage_6
   231 3202 C9 14		        cmp #$14
   232 3204 D0 0C		        bne report_stage_7
   233 3206 A9 F1		        lda #<msg_stage_pal
   234 3208 A2 35		        ldx #>msg_stage_pal
   235 320A A0 14		        ldy #msg_stage_pal_end-msg_stage_pal
   236 320C 20 43 31		        jsr print_record
   237 320F 4C 1F 32		        jmp report_dbg
   238 3212			report_stage_7
   239 3212 C9 15		        cmp #$15
   240 3214 D0 09		        bne report_dbg
   241 3216 A9 05		        lda #<msg_stage_pix
   242 3218 A2 36		        ldx #>msg_stage_pix
   243 321A A0 13		        ldy #msg_stage_pix_end-msg_stage_pix
   244 321C 20 43 31		        jsr print_record
   245
   246 321F			report_dbg
   247 321F AD 00 88		        lda debug_stage
   248 3222 A2 03		        ldx #3
   249 3224 20 68 31		        jsr write_dbg_hex
   250 3227 AD 01 88		        lda debug_dstats
   251 322A A2 09		        ldx #9
   252 322C 20 68 31		        jsr write_dbg_hex
   253 322F AD 02 88		        lda debug_fn_error
   254 3232 A2 0F		        ldx #15
   255 3234 20 68 31		        jsr write_dbg_hex
   256 3237 AD 03 88		        lda debug_connected
   257 323A A2 15		        ldx #21
   258 323C 20 68 31		        jsr write_dbg_hex
   259 323F AD 04 88		        lda debug_bytes_lo
   260 3242 A2 1B		        ldx #27
   261 3244 20 68 31		        jsr write_dbg_hex
   262 3247 AD 05 88		        lda debug_bytes_hi
   263 324A A2 21		        ldx #33
   264 324C 20 68 31		        jsr write_dbg_hex
   265 324F AD 07 88		        lda debug_rx_len
   266 3252 A2 27		        ldx #39
   267 3254 20 68 31		        jsr write_dbg_hex
   268 3257 A9 18		        lda #<dbg_line
   269 3259 A2 36		        ldx #>dbg_line
   270 325B A0 2A		        ldy #dbg_line_end-dbg_line
   271 325D 20 43 31		        jsr print_record
   272 3260 60			        rts
   273
   274 3261			report_text_success
   275 3261 A9 DC		        lda #<msg_text_ok
   276 3263 A2 34		        ldx #>msg_text_ok
   277 3265 A0 1A		        ldy #msg_text_ok_end-msg_text_ok
   278 3267 20 43 31		        jsr print_record
   279 326A 20 1F 32		        jsr report_dbg
   280 326D A9 2D		        lda #<msg_payload
   281 326F A2 35		        ldx #>msg_payload
   282 3271 A0 09		        ldy #msg_payload_end-msg_payload
   283 3273 20 43 31		        jsr print_record
   284 3276 A9 60		        lda #<rx_buffer
   285 3278 A2 89		        ldx #>rx_buffer
   286 327A AC 07 88		        ldy debug_rx_len
   287 327D 20 43 31		        jsr print_record
   288 3280 A9 36		        lda #<msg_press_space
   289 3282 A2 35		        ldx #>msg_press_space
   290 3284 A0 28		        ldy #msg_press_space_end-msg_press_space
   291 3286 20 43 31		        jsr print_record
   292 3289 60			        rts
    59 328A			        icl 'fujinet.asm'
Source: fujinet.asm
     1 				; ============================================================================
     2 				; FujiNet N: Device SIO Layer
     3 				; ============================================================================
     4
     5 = 0071			FN_DEVID       = $71
     6 = 0001			FN_UNIT        = 1
     7 328A 01			fn_cur_unit    dta FN_UNIT     ; current N: unit (1=page, 2=image)
     8 = 004F			FN_CMD_OPEN    = 'O'
     9 = 0043			FN_CMD_CLOSE   = 'C'
    10 = 0052			FN_CMD_READ    = 'R'
    11 = 0053			FN_CMD_STATUS  = 'S'
    12 = 0040			SIO_READ       = $40
    13 = 0080			SIO_WRITE      = $80
    14 = 0000			SIO_NONE       = $00
    15 = 0004			FN_OPEN_READ   = 4
    16 = 0000			FN_TRANS_NONE  = 0
    17 = 001E			FN_TIMEOUT     = 30
    18 = 0100			URL_BUF_SIZE   = 256
    19 = 0100			RX_BUF_SIZE    = 256
    20
    21 				; ----------------------------------------------------------------------------
    22 				; fn_open - Open FujiNet connection (url_buffer -> OPEN)
    23 				; Output: C=0 ok, C=1 error
    24 				; ----------------------------------------------------------------------------
    25 328B			.proc fn_open
    26 328B A9 71		        lda #FN_DEVID
    27 328D 8D 00 03		        sta DDEVIC
    28 3290 AD 8A 32		        lda fn_cur_unit
    29 3293 8D 01 03		        sta DUNIT
    30 3296 A9 4F		        lda #FN_CMD_OPEN
    31 3298 8D 02 03		        sta DCOMND
    32 329B A9 80		        lda #SIO_WRITE
    33 329D 8D 03 03		        sta DSTATS
    34 32A0 A9 60		        lda #<url_buffer
    35 32A2 8D 04 03		        sta DBUFLO
    36 32A5 A9 88		        lda #>url_buffer
    37 32A7 8D 05 03		        sta DBUFHI
    38 32AA A9 1E		        lda #FN_TIMEOUT
    39 32AC 8D 06 03		        sta DTIMLO
    40 32AF A9 00		        lda #<URL_BUF_SIZE
    41 32B1 8D 08 03		        sta DBYTLO
    42 32B4 A9 01		        lda #>URL_BUF_SIZE
    43 32B6 8D 09 03		        sta DBYTHI
    44 32B9 A9 04		        lda #FN_OPEN_READ
    45 32BB 8D 0A 03		        sta DAUX1
    46 32BE A9 00		        lda #FN_TRANS_NONE
    47 32C0 8D 0B 03		        sta DAUX2
    48
    49 32C3 20 59 E4		        jsr SIOV
    50 32C6 AD 03 03		        lda DSTATS
    51 32C9 30 02		        bmi ?err
    52 32CB 18			        clc
    53 32CC 60			        rts
    54 32CD 38			?err    sec
    55 32CE 60			        rts
    56 				.endp
    57
    58 				; ----------------------------------------------------------------------------
    59 				; fn_status - Get FujiNet status (bytes waiting, connected, error)
    60 				; Reads 4-byte DVSTAT: [0]=bytes_lo, [1]=bytes_hi, [2]=connected, [3]=error
    61 				; Error codes: 0=ok, 136($88)=EOF/closed, other=fatal
    62 				; Output: zp_fn_bytes_lo/hi, zp_fn_connected, zp_fn_error, C=0/1
    63 				; ----------------------------------------------------------------------------
    64 32CF			.proc fn_status
    65 32CF A9 71		        lda #FN_DEVID
    66 32D1 8D 00 03		        sta DDEVIC
    67 32D4 AD 8A 32		        lda fn_cur_unit
    68 32D7 8D 01 03		        sta DUNIT
    69 32DA A9 53		        lda #FN_CMD_STATUS
    70 32DC 8D 02 03		        sta DCOMND
    71 32DF A9 40		        lda #SIO_READ
    72 32E1 8D 03 03		        sta DSTATS
    73 32E4 A9 EA		        lda #<DVSTAT
    74 32E6 8D 04 03		        sta DBUFLO
    75 32E9 A9 02		        lda #>DVSTAT
    76 32EB 8D 05 03		        sta DBUFHI
    77 32EE A9 1E		        lda #FN_TIMEOUT
    78 32F0 8D 06 03		        sta DTIMLO
    79 32F3 A9 04		        lda #4
    80 32F5 8D 08 03		        sta DBYTLO
    81 32F8 A9 00		        lda #0
    82 32FA 8D 09 03		        sta DBYTHI
    83 32FD 8D 0A 03		        sta DAUX1
    84 3300 8D 0B 03		        sta DAUX2
    85
    86 3303 20 59 E4		        jsr SIOV
    87 3306 AD 03 03		        lda DSTATS
    88 3309 30 16		        bmi ?err
    89
    90 330B AD EA 02		        lda DVSTAT
    91 330E 85 A1		        sta zp_fn_bytes_lo
    92 3310 AD EB 02		        lda DVSTAT+1
    93 3313 85 A2		        sta zp_fn_bytes_hi
    94 3315 AD EC 02		        lda DVSTAT+2
    95 3318 85 9F		        sta zp_fn_connected
    96 331A AD ED 02		        lda DVSTAT+3
    97 331D 85 A0		        sta zp_fn_error
    98
    99 331F 18			        clc
   100 3320 60			        rts
   101 3321 38			?err    sec
   102 3322 60			        rts
   103 				.endp
   104
   105 				; ----------------------------------------------------------------------------
   106 				; fn_read - Read data from FujiNet into rx_buffer
   107 				; Uses zp_fn_bytes_lo/hi from fn_status, caps at 255 (8-bit zp_rx_len)
   108 				; Reading 256 would set zp_rx_len=0 (overflow!) — always read max 255
   109 				; DAUX1/DAUX2 must match DBYTLO/DBYTHI (FujiNet requirement)
   110 				; Output: zp_rx_len = bytes read, C=0/1
   111 				; ----------------------------------------------------------------------------
   112 3323			.proc fn_read
   113 3323 A5 A2		        lda zp_fn_bytes_hi
   114 3325 D0 06		        bne ?max
   115 3327 A5 A1		        lda zp_fn_bytes_lo
   116 3329 F0 1E		        beq ?nothing
   117 332B D0 0F		        bne ?use_lo
   118
   119 332D A9 FF		?max    lda #255                       ; Max 255 bytes (fits in 8-bit rx_len)
   120 332F 85 A3		        sta zp_rx_len
   121 3331 8D 08 03		        sta DBYTLO
   122 3334 A9 00		        lda #0
   123 3336 8D 09 03		        sta DBYTHI
   124 3339 4C 4F 33		        jmp ?do
   125
   126 333C 85 A3		?use_lo sta zp_rx_len
   127 333E 8D 08 03		        sta DBYTLO
   128 3341 A9 00		        lda #0
   129 3343 8D 09 03		        sta DBYTHI
   130 3346 4C 4F 33		        jmp ?do
   131
   132 3349			?nothing
   133 3349 A9 00		        lda #0
   134 334B 85 A3		        sta zp_rx_len
   135 334D 18			        clc
   136 334E 60			        rts
   137
   138 334F A9 71		?do     lda #FN_DEVID
   139 3351 8D 00 03		        sta DDEVIC
   140 3354 AD 8A 32		        lda fn_cur_unit
   141 3357 8D 01 03		        sta DUNIT
   142 335A A9 52		        lda #FN_CMD_READ
   143 335C 8D 02 03		        sta DCOMND
   144 335F A9 40		        lda #SIO_READ
   145 3361 8D 03 03		        sta DSTATS
   146 3364 A9 60		        lda #<rx_buffer
   147 3366 8D 04 03		        sta DBUFLO
   148 3369 A9 89		        lda #>rx_buffer
   149 336B 8D 05 03		        sta DBUFHI
   150 336E A9 1E		        lda #FN_TIMEOUT
   151 3370 8D 06 03		        sta DTIMLO
   152 3373 AD 08 03		        lda DBYTLO
   153 3376 8D 0A 03		        sta DAUX1
   154 3379 AD 09 03		        lda DBYTHI
   155 337C 8D 0B 03		        sta DAUX2
   156
   157 337F 20 59 E4		        jsr SIOV
   158 3382 AD 03 03		        lda DSTATS
   159 3385 30 02		        bmi ?err
   160 3387 18			        clc
   161 3388 60			        rts
   162 3389 38			?err    sec
   163 338A 60			        rts
   164 				.endp
   165
   166 				; ----------------------------------------------------------------------------
   167 				; fn_close - Close FujiNet connection
   168 				; ----------------------------------------------------------------------------
   169 338B			.proc fn_close
   170 338B A9 71		        lda #FN_DEVID
   171 338D 8D 00 03		        sta DDEVIC
   172 3390 AD 8A 32		        lda fn_cur_unit
   173 3393 8D 01 03		        sta DUNIT
   174 3396 A9 43		        lda #FN_CMD_CLOSE
   175 3398 8D 02 03		        sta DCOMND
   176 339B A9 00		        lda #SIO_NONE
   177 339D 8D 03 03		        sta DSTATS
   178 33A0 A9 00		        lda #0
   179 33A2 8D 04 03		        sta DBUFLO
   180 33A5 8D 05 03		        sta DBUFHI
   181 33A8 8D 08 03		        sta DBYTLO
   182 33AB 8D 09 03		        sta DBYTHI
   183 33AE 8D 0A 03		        sta DAUX1
   184 33B1 8D 0B 03		        sta DAUX2
   185 33B4 A9 1E		        lda #FN_TIMEOUT
   186 33B6 8D 06 03		        sta DTIMLO
   187
   188 33B9 4C 59 E4		        jmp SIOV
   189 				.endp
    60 33BC			        icl 'client/assets.asm'
Source: assets.asm
     1 33BC			demo_timer_stubs
     2 33BC 98			        tya
     3 33BD 48			        pha
     4 33BE A5 AD		        lda zp_memb_shadow
     5 33C0 85 AE		        sta zp_tirq_saved
     6 33C2 A9 00		        lda #0
     7 33C4 85 AD		        sta zp_memb_shadow
     8 33C6 A0 5D		        ldy #VBXE_MEMAC_B
     9 33C8 91 80		        sta (zp_vbxe_base),y
    10 33CA 4C 00 00		        jmp $0000
    11
    12 33CD A5 AE		        lda zp_tirq_saved
    13 33CF 85 AD		        sta zp_memb_shadow
    14 33D1 F0 02		        beq *+4
    15 33D3 91 80		        sta (zp_vbxe_base),y
    16 33D5 68			        pla
    17 33D6 A8			        tay
    18 33D7 68			        pla
    19 33D8 40			        rti
    20 33D9			demo_timer_stubs_end
    21
    22 33D9			demo_mouse_movtab
    23 33D9 00 FF 01 00 01 00 +         dta 0,$FF,1,0, 1,0,0,$FF, $FF,0,0,1, 0,1,$FF,0
    24
    25 33E9			demo_font_page_map
    26 33E9 02 00 01 03		        dta 2,0,1,3
    27
    28 33ED			demo_arrow_data
    29 33ED 80 C0 E0 F0 F8 E0 +         dta $80,$C0,$E0,$F0,$F8,$E0,$A0,$00
    30 33F5			demo_arrow_data_end
    31
    32 33F5			demo_popup_text
    33 33F5 68 65 6C 6C 6F 20 +         dta c'hello world',0
    34 = 3401			        .ds DEMO_POPUP_TEXT_MAX+1-(12)
    35
    36 3409			default_room_name
    37 3409-3641> 72 6F 6F 6D +         dta c'room1',0
    38
    39 340F 4E 3A 68 74 74 70 + text_url_string  dta c'N:http://127.0.0.1:3000/',0
    40 3428			text_url_string_end
    41 3428 4E 3A 68 74 74 70 + room_url_prefix  dta c'N:http://127.0.0.1:3000/room/',0
    42 3446			room_url_prefix_end
    43 3446 4E 3A 68 74 74 70 + click_url_prefix dta c'N:http://127.0.0.1:3000/click/',0
    44 3465			click_url_prefix_end
    45 3465 4E 3A 68 74 74 70 + gfx_url_prefix   dta c'N:http://127.0.0.1:3000/gfx/',0
    46 3482			gfx_url_prefix_end
    47 3482 4E 3A 68 74 74 70 + slide_url_string dta c'N:http://127.0.0.1:3000/slide/'
    48 34A0 30			slide_url_hex_hi dta c'0'
    49 34A1 30 00		slide_url_hex_lo dta c'0',0
    50 34A3			slide_url_string_end
    51
    52 34A3 46 75 6A 69 4E 65 + msg_title            dta c'FujiNet demo: text then image', ATASCII_RET
    53 34C1			msg_title_end
    54 34C1 54 65 78 74 20 55 + msg_text_url         dta c'Text URL:', ATASCII_RET
    55 34CB			msg_text_url_end
    56 34CB 46 65 74 63 68 69 + msg_wait_text        dta c'Fetching text...', ATASCII_RET
    57 34DC			msg_wait_text_end
    58 34DC 54 65 78 74 20 72 + msg_text_ok          dta c'Text received from server', ATASCII_RET
    59 34F6			msg_text_ok_end
    60 34F6 54 65 78 74 20 66 + msg_text_fail        dta c'Text fetch failed', ATASCII_RET
    61 3508			msg_text_fail_end
    62 3508 49 6D 61 67 65 20 + msg_img_fail         dta c'Image fetch failed', ATASCII_RET
    63 351B			msg_img_fail_end
    64 351B 56 42 58 45 20 6E + msg_no_vbxe          dta c'VBXE not detected', ATASCII_RET
    65 352D			msg_no_vbxe_end
    66 352D 50 61 79 6C 6F 61 + msg_payload          dta c'Payload:', ATASCII_RET
    67 3536			msg_payload_end
    68 3536 50 72 65 73 73 20 + msg_press_space      dta c'Press SPACE for slideshow or D for demo', ATASCII_RET
    69 355E			msg_press_space_end
    70 355E 4C 6F 61 64 69 6E + msg_loading_image    dta c'Loading image...', ATASCII_RET
    71 356F			msg_loading_image_end
    72 356F 4C 6F 61 64 69 6E + msg_loading_room     dta c'Loading room1...', ATASCII_RET
    73 3580			msg_loading_room_end
    74 3580 47 65 6E 65 72 61 + msg_generating_demo  dta c'Generating demo image...', ATASCII_RET
    75 3599			msg_generating_demo_end
    76 3599 53 74 61 67 65 3A + msg_stage_text_open  dta c'Stage: OPEN TEXT', ATASCII_RET
    77 35AA			msg_stage_text_open_end
    78 35AA 53 74 61 67 65 3A + msg_stage_text_wait  dta c'Stage: WAIT TEXT', ATASCII_RET
    79 35BB			msg_stage_text_wait_end
    80 35BB 53 74 61 67 65 3A + msg_stage_text_read  dta c'Stage: READ TEXT', ATASCII_RET
    81 35CC			msg_stage_text_read_end
    82 35CC 53 74 61 67 65 3A + msg_stage_img_open   dta c'Stage: OPEN IMAGE', ATASCII_RET
    83 35DE			msg_stage_img_open_end
    84 35DE 53 74 61 67 65 3A + msg_stage_hdr        dta c'Stage: READ HEADER', ATASCII_RET
    85 35F1			msg_stage_hdr_end
    86 35F1 53 74 61 67 65 3A + msg_stage_pal        dta c'Stage: READ PALETTE', ATASCII_RET
    87 3605			msg_stage_pal_end
    88 3605 53 74 61 67 65 3A + msg_stage_pix        dta c'Stage: READ PIXELS', ATASCII_RET
    89 3618			msg_stage_pix_end
    90 3618 53 54 3D 30 30 20 + dbg_line             dta c'ST=00 DS=00 FE=00 CN=00 BL=00 BH=00 RX=00', ATASCII_RET
    91 3642			dbg_line_end
    61 3642			        icl 'client/state.asm'
Source: state.asm
     1 3642			        org $8800
     2 8800-883D> 00		debug_stage        dta b(0)
     3 8801 00			debug_dstats       dta b(0)
     4 8802 00			debug_fn_error     dta b(0)
     5 8803 00			debug_connected    dta b(0)
     6 8804 00			debug_bytes_lo     dta b(0)
     7 8805 00			debug_bytes_hi     dta b(0)
     8 8806 00			debug_timeout_ctr  dta b(0)
     9 8807 00			debug_rx_len       dta b(0)
    10 8808 00 00		img_width          dta b(0),b(0)
    11 880A 00 00		img_pal_count      dta b(0),b(0)
    12 880C 00			img_pal_leftover   dta b(0)
    13 880D 00			img_height         dta b(0)
    14 880E 00 00 00		img_vram           dta b(0),b(0),b(0)
    15 8811 00			img_wr_bank        dta b(0)
    16 8812 00			slide_index        dta b(0)
    17 8813 00			demo_mode          dta b(0)
    18 8814 00			demo_phase         dta b(0)
    19 8815 00			demo_row           dta b(0)
    20 8816 00			demo_x_base        dta b(0)
    21 8817 00			demo_chunk_len     dta b(0)
    22 8818 00			demo_input_active  dta b(0)
    23 8819 00			demo_pending_dx    dta b(0)
    24 881A 00			demo_pending_dy    dta b(0)
    25 881B 00			demo_mouse_old_x   dta b(0)
    26 881C 00			demo_mouse_old_y   dta b(0)
    27 881D 00			demo_stick_state   dta b(0)
    28 881E 00			demo_cursor_row_ix dta b(0)
    29 881F 00			demo_cursor_mask   dta b(0)
    30 8820 00			demo_cursor_bank   dta b(0)
    31 8821 00			demo_cursor_x2     dta b(0)
    32 8822 00			demo_cursor_abs_y  dta b(0)
    33 8823 00			demo_cursor_ofs_hi dta b(0)
    34 8824 00			demo_cursor_save_ix dta b(0)
    35 8825 00			demo_cursor_clip_w dta b(0)
    36 8826 00			demo_cursor_clip_h dta b(0)
    37 8827 00			demo_stamp_phase   dta b(0)
    38 8828 00			demo_stamp_width   dta b(0)
    39 8829 00			demo_stamp_height  dta b(0)
    40 882A 00			demo_stamp_row     dta b(0)
    41 882B 00			demo_popup_active  dta b(0)
    42 882C 00			demo_popup_x       dta b(0)
    43 882D 00			demo_popup_y       dta b(0)
    44 882E 00			demo_popup_row     dta b(0)
    45 882F 00			demo_popup_char_ix dta b(0)
    46 8830 00			demo_popup_text_row dta b(0)
    47 8831 00			demo_popup_font_bits dta b(0)
    48 8832 00			demo_rowtab_ptr_lo dta b(0)
    49 8833 00			demo_rowtab_ptr_hi dta b(0)
    50 8834 00			demo_rowtab_bank   dta b(0)
    51 8835 00			room_action_pending_reload dta b(0)
    52 8836 00			room_patch_x_lo    dta b(0)
    53 8837 00			room_patch_x_hi    dta b(0)
    54 8838 00			room_patch_y       dta b(0)
    55 8839 00			room_patch_width   dta b(0)
    56 883A 00			room_patch_height  dta b(0)
    57 883B 00			room_patch_cur_y   dta b(0)
    58 883C 00			room_patch_row_remaining dta b(0)
    59 883D 00			room_patch_rows_left dta b(0)
    60
    61 = 883E			current_room_name  .ds ROOM_NAME_MAX+1
    62 = 884F			room_patch_source_room .ds ROOM_NAME_MAX+1
    63 = 8860			url_buffer        .ds 256
    64 = 8960			rx_buffer         .ds 256
    65 = 8A60			img_pal_buf       .ds 768
    66 = 8D60			demo_cursor_saved .ds DEMO_CURSOR_WIDTH*(demo_arrow_data_end-demo_arrow_data)
    67 = 8DE0			demo_popup_saved  .ds DEMO_POPUP_WIDTH*DEMO_POPUP_HEIGHT
    68 = 9560			demo_row_ptr_lo   .ds DEMO_HEIGHT
    69 = 9628			demo_row_ptr_hi   .ds DEMO_HEIGHT
    70 = 96F0			demo_row_bank     .ds DEMO_HEIGHT
    62
    63 02E0-02E1> 00 20		        run main
