ERR LINE  ADDR  B1 B2 B3 B4                      6500 ASSEMBLER VER 1.0MR                     PAGE    1

       1                          ; 
       2                          ; TANDEM FILENAME: R850HRS1 
       3                          ; 
     749                           .LIST S 
     750                          ; 
     751                          ;       RS-232 HANDLER (RELOCATING VERSION !!) 
     752                          ; 
     753                          ;               RS-232 HANDLER CODE (COLLEEN RESIDENT) 
     754                          ; 
     755                          ; 
     756  0700                    ORIGIN  .EQU  $700  ORIGIN FOR ASSEMBLER 
     757  0020                    RBFSIZ  .EQU 32 
     758  0053                    RSTAT   .EQU  'S'   DCB STATUS COMMAND 
     759  0057                    WRITE   .EQU  'W'   DCB WRITE COMMAND 
     760  0041                    CTLCOM  .EQU  'A'   DCB CONTROL COMMAND 
     761  0058                    STRCOM  .EQU  'X'   DCB STREAM COMMAND 
     762  0042                    CNFCOM  .EQU  'B'   DCB CONFIGURE COMMAND 
     763  0028                    STRCMD  .EQU  $28   IOCB STREAM COMMAND 
     764  0026                    TRNCMD  .EQU  $26   IOCB TRANSLATE COMMAND 
     765  0024                    CNFCMD  .EQU  $24   IOCB CONFIGURE COMMAND 
     766  0022                    CTLCMD  .EQU  $22   IOCB CONTROL COMMAND 
     767  0020                    FRCCMD  .EQU  $20   IOCB FORCE BLOCK COMMAND 
     768  0050                    RSADRS  .EQU  $50   RS-232 DEVICE ADDRESS 
     769  0096                    PRTOPN  .EQU  150   PORT ALREADY OPEN ERROR 
     770  0097                    NOSTER  .EQU  151   PORT NOT OPEN FOR STREAM ERROR 
     771  0098                    BADBUF  .EQU  152   BAD USER-SUPPLIED BUFFERS 
     772  0099                    STACTV  .EQU  153   ANOTHER STREAM IS ALREADY ACTIVE 
     773  009A                    NOSTAC  .EQU  154   NO STREAM IS ACTIVE (THUS, NO INPUT ALLOWED) 
     774  0600                      
     775  0600                      
     776  0600                      
     777                          ;       OPCODE DEFINITIONS FOR RELOCATING MACRO 
     778  002C                    RBIT    .EQU $2C 
     779  0020                    RJSR    .EQU $20 
     780  00BD                    RLDAX   .EQU $BD 
     781  009D                    RSTAX   .EQU $9D 
     782  00EC                    RCPX    .EQU $EC 
     783  00AD                    RLDA    .EQU $AD 
     784  008E                    RSTX    .EQU $8E 
     785  004C                    RJMP    .EQU $4C 
     786  008D                    RSTA    .EQU $8D 
     787  00B9                    RLDAY   .EQU $B9 
     788  0099                    RSTAY   .EQU $99 
     789  00FE                    RINCX   .EQU $FE 
     790  00DD                    RCMPX   .EQU $DD 
     791  007D                    RADCX   .EQU $7D 
     792  00BC                    RLDYX   .EQU $BC 
     793  00EE                    RINC    .EQU $EE 
     794  008C                    RSTY    .EQU $8C 
     795  001D                    RORAX   .EQU $1D 
     796  00AC                    RLDY    .EQU $AC 
     797  006C                    RJMPI   .EQU $6C 
     798  00AE                    RLDX    .EQU $AE 
     799  00CE                    RDEC    .EQU $CE ERR LINE  ADDR  B1 B2 B3 B4                      6500 ASSEMBLER VER 1.0MR                     PAGE    2

     800  003D                    RANDX   .EQU $3D 
     801  00FD                    RSBCX   .EQU $FD 
     802  0600                      
     803                          ;       RELOCATION MACRO 
     804                          REL     .MACRO  OP,VARNUM 
     805                                  .BYTE   OP 
     806                                  .BYTE   VARNUM 
     807                                  .BYTE   *-Q+1 
     808                          Q       .SET * 
     809                                  .ENDM 
     810  0600                      
     811  0600                      
     812                                  .ORG ORIGIN        TEMPORARY ORIGIN FOR DEVELOPMENT 
     813  0700                      
     814  0700  20                RHOPEN  .BYTE $20 
     815  0701  00 00                     .BYTE 0,0 
     816  0703                    Q       .SET * 
     817  0703                      
     818  0703                            REL RLDAX,2 
     819  0703  BD               +        .BYTE   RLDAX 
     820  0704  02               +        .BYTE   2 
     821  0705  03               +        .BYTE   *-Q+1 
     822  0706                   +Q       .SET * 
     823  0706  10 03                     BPL RNTOPN      TEST FOR PORT ALREADY OPEN 
     824  0708  A0 96                     LDY #PRTOPN     ERROR, PORT ALREADY OPENED 
     825  070A  60                        RTS 
     826  070B                      
     827  070B  A5 2A             RNTOPN  LDA ICAX1Z 
     828  070D  A8                        TAY 
     829  070E  29 0C                     AND #12 
     830  0710  D0 03                     BNE ROKOPN 
     831  0712  A0 84                     LDY #132 
     832  0714  60                        RTS             ERROR, NO PERMISSIONS GRANTED PORT 
     833  0715                      
     834  0715  98                ROKOPN  TYA 
     835  0716  09 80                     ORA #$80 
     836  0718                            REL RSTAX,2    SET-UP PERMISSION BYTE 
     837  0718  9D               +        .BYTE   RSTAX 
     838  0719  02               +        .BYTE   2 
     839  071A  15               +        .BYTE   *-Q+1 
     840  071B                   +Q       .SET * 
     841  071B  A9 00                     LDA #0 
     842  071D                            REL RSTAX,4    INITIALIZE PUT-COUNTER 
     843  071D  9D               +        .BYTE   RSTAX 
     844  071E  04               +        .BYTE   4 
     845  071F  05               +        .BYTE   *-Q+1 
     846  0720                   +Q       .SET * 
     847  0720                            REL RSTAX,6    CLEAR ERROR FLAGS 
     848  0720  9D               +        .BYTE   RSTAX 
     849  0721  06               +        .BYTE   6 
     850  0722  03               +        .BYTE   *-Q+1 
     851  0723                   +Q       .SET * 
     852  0723  A0 01                     LDY #SUCCES 
     853  0725  60                        RTS ERR LINE  ADDR  B1 B2 B3 B4                      6500 ASSEMBLER VER 1.0MR                     PAGE    3

     854  0726                      
     855  0726                    RHCLOS  REL RJSR,0     TEST DEVICE NUMBER FOR VALIDITY 
     856  0726  20               +        .BYTE   RJSR 
     857  0727  00               +        .BYTE   0 
     858  0728  06               +        .BYTE   *-Q+1 
     859  0729                   +Q       .SET * 
     860  0729                      
     861  0729                            REL RCPX,8 
     862  0729  EC               +        .BYTE   RCPX 
     863  072A  08               +        .BYTE   8 
     864  072B  03               +        .BYTE   *-Q+1 
     865  072C                   +Q       .SET * 
     866  072C  F0 0C                     BEQ CLSTRM      TEST FOR ACTIVE STREAM, BRANCH IF SO 
     867  072E                      
     868  072E                            REL RLDAX,4 
     869  072E  BD               +        .BYTE   RLDAX 
     870  072F  04               +        .BYTE   4 
     871  0730  05               +        .BYTE   *-Q+1 
     872  0731                   +Q       .SET * 
     873  0731  F0 2C                     BEQ MTPBUF      TEST FOR BUFFER EMPTY, BRANCH IF SO 
     874  0733                      
     875  0733                            REL RJSR,10    PREPARE TO DO A PUT-BLOCK 
     876  0733  20               +        .BYTE   RJSR 
     877  0734  0A               +        .BYTE   10 
     878  0735  05               +        .BYTE   *-Q+1 
     879  0736                   +Q       .SET * 
     880  0736  A0 80                     LDY #$80 
     881  0738  D0 2A                     BNE CLSPUT      JOIN AND SEND DCB (BRANCH IS A JUMP) 
     882  073A                      
     883  073A                    CLSTRM  REL RLDA,12 
     884  073A  AD               +        .BYTE   RLDA 
     885  073B  0C               +        .BYTE   12 
     886  073C  07               +        .BYTE   *-Q+1 
     887  073D                   +Q       .SET * 
     888  073D  F0 FB                     BEQ CLSTRM      WAIT FOR BUFFER TO DRAIN 
     889  073F  78                        SEI 
     890  0740                            REL RLDA,14 
     891  0740  AD               +        .BYTE   RLDA 
     892  0741  0E               +        .BYTE   14 
     893  0742  06               +        .BYTE   *-Q+1 
     894  0743                   +Q       .SET * 
     895  0743  8D 16 02                  STA VIMIRQ 
     896  0746                            REL RLDA,16 
     897  0746  AD               +        .BYTE   RLDA 
     898  0747  10               +        .BYTE   16 
     899  0748  06               +        .BYTE   *-Q+1 
     900  0749                   +Q       .SET * 
     901  0749  8D 17 02                  STA VIMIRQ+1    RESTORE MAIN SYSTEM IRQ VECTOR 
     902  074C  A2 05                     LDX #5 
     903  074E                    CLSVCT  REL RLDAX,18 
     904  074E  BD               +        .BYTE   RLDAX 
     905  074F  12               +        .BYTE   18 
     906  0750  08               +        .BYTE   *-Q+1 
     907  0751                   +Q       .SET * ERR LINE  ADDR  B1 B2 B3 B4                      6500 ASSEMBLER VER 1.0MR                     PAGE    4

     908  0751  9D 0A 02                  STA VSERIN,X 
     909  0754  CA                        DEX 
     910  0755  10 F7                     BPL CLSVCT      RETURN SYSTEM INTERRUPT VECTORS 
     911  0757  58                        CLI 
     912  0758                            REL RLDA,8 
     913  0758  AD               +        .BYTE   RLDA 
     914  0759  08               +        .BYTE   8 
     915  075A  0A               +        .BYTE   *-Q+1 
     916  075B                   +Q       .SET * 
     917  075B                            REL RSTX,8     INDICATE NO ACTIVE STREAM 
     918  075B  8E               +        .BYTE   RSTX 
     919  075C  08               +        .BYTE   8 
     920  075D  03               +        .BYTE   *-Q+1 
     921  075E                   +Q       .SET * 
     922  075E  AA                        TAX             X=DEVICE STREAMING 
     923                          ;*** FALL THRU TO REST OF EMPTY PUT BUFFER PROCESSING 
     924  075F                      
     925  075F  A0 00             MTPBUF  LDY #0 
     926  0761  8C 0A 03                  STY DAUX1       INDICATE NO DATA (FOR CONTROLLER) 
     927  0764  A9 00             CLSPUT  LDA #0 
     928  0766                            REL RSTAX,2    CLEAR DEVICE PERMISSIONS AND ETC. 
     929  0766  9D               +        .BYTE   RSTAX 
     930  0767  02               +        .BYTE   2 
     931  0768  0B               +        .BYTE   *-Q+1 
     932  0769                   +Q       .SET * 
     933  0769  A9 57                     LDA #WRITE 
     934  076B                            REL RJMP,22    CREATE A WRITE DCB AND EXIT 
     935  076B  4C               +        .BYTE   RJMP 
     936  076C  16               +        .BYTE   22 
     937  076D  05               +        .BYTE   *-Q+1 
     938  076E                   +Q       .SET * 
     939  076E                      
     940  076E                      
     941  076E  BC 41 03          RHPUT   LDY ICDNO,X     FETCH DEVICE NUMBER FROM ORIGINATING IOCB 
     942  0771  C0 05                     CPY #5 
     943  0773  90 03                     BCC PTDVOK      TEST DEVICE NUMBER FOR VALIDITY 
     944  0775  A0 82                     LDY #NONDEV 
     945  0777  60                        RTS             RETURN ERROR IF INVALID 
     946  0778                      
     947  0778                    PTDVOK  REL RSTA,24    SAVE UNTRANSLATED CHARACTER 
     948  0778  8D               +        .BYTE   RSTA 
     949  0779  18               +        .BYTE   24 
     950  077A  0D               +        .BYTE   *-Q+1 
     951  077B                   +Q       .SET * 
     952  077B                            REL RLDAY,2 
     953  077B  B9               +        .BYTE   RLDAY 
     954  077C  02               +        .BYTE   2 
     955  077D  03               +        .BYTE   *-Q+1 
     956  077E                   +Q       .SET * 
     957  077E  29 08                     AND #8          TEST FOR WRITE PERMISSION 
     958  0780  D0 03                     BNE WRITOK 
     959  0782  A0 87                     LDY #RDONLY 
     960  0784  60                        RTS             RETURN, ERROR DEVICE READ-ONLY 
     961  0785                      ERR LINE  ADDR  B1 B2 B3 B4                      6500 ASSEMBLER VER 1.0MR                     PAGE    5

     962  0785  98                WRITOK  TYA 
     963  0786  AA                        TAX             X=DEVICE NUMBER 
     964  0787  86 21                     STX ICDNOZ      COPY INTO ZERO PAGE (DAMN BASIC ANYWAY!) 
     965  0789                      
     966                          ; OUTPUT TRANSLATION 0=LONG,1=SHORT, ELSE NOT TRANSLATED 
     967  0789                      
     968  0789                            REL RLDAX,26 
     969  0789  BD               +        .BYTE   RLDAX 
     970  078A  1A               +        .BYTE   26 
     971  078B  0E               +        .BYTE   *-Q+1 
     972  078C                   +Q       .SET * 
     973  078C  29 30                     AND #$30 
     974  078E  A8                        TAY             MASK-OFF AND SAVE OUTPUT PARITY MODE 
     975  078F  F0 04                     BEQ OTRANS      0 ==> TRANSLATION (LONG TO BE EXACT) 
     976  0791  C9 20                     CMP #$20 
     977  0793  B0 36                     BCS PAROT2      NO TRANSLATION, GO DIRECTLY TO OUTPUT PARITY 
     978  0795                    OTRANS  REL RLDA,24 
     979  0795  AD               +        .BYTE   RLDA 
     980  0796  18               +        .BYTE   24 
     981  0797  0C               +        .BYTE   *-Q+1 
     982  0798                   +Q       .SET * 
     983  0798  C9 9B                     CMP #$9B        TEST FOR <EOL> 
     984  079A  D0 19                     BNE REGOTR 
     985  079C                            REL RLDAX,26 
     986  079C  BD               +        .BYTE   RLDAX 
     987  079D  1A               +        .BYTE   26 
     988  079E  07               +        .BYTE   *-Q+1 
     989  079F                   +Q       .SET * 
     990  079F  29 40                     AND #$40 
     991  07A1  F0 0E                     BEQ TONOLF      TEST FOR REQUEST TO APPEND <LF> 
     992  07A3  A9 0D                     LDA #$D         APPEND <LF> CASE ... 
     993  07A5                            REL RJSR,28    FAKE A SUBR. CALL TO NORMAL EXIT ... TRICKY,UGLY 
     994  07A5  20               +        .BYTE   RJSR 
     995  07A6  1C               +        .BYTE   28 
     996  07A7  09               +        .BYTE   *-Q+1 
     997  07A8                   +Q       .SET * 
     998  07A8  10 01                     BPL LFNOER 
     999  07AA  60                        RTS             RETURN IMMEDIATLY IF SIO ERROR 
    1000  07AB  A6 21             LFNOER  LDX ICDNOZ      RESTORE DEVICE NUMBER 
    1001  07AD  A9 0A                     LDA #$A         APPEND <LF> 
    1002  07AF  D0 17                     BNE PAROUT 
    1003  07B1  A9 0D             TONOLF  LDA #$D 
    1004  07B3  D0 13                     BNE PAROUT      JUST <EOL> TO <CR> TRANSLATION PLEASE ... 
    1005  07B5  C0 10             REGOTR  CPY #$10        REGULAR TRANSLATION, TEST FOR SHORT OR LONG 
    1006  07B7  F0 04                     BEQ OSHRTR      1 ==> SHORT TRANSLATE MODE 
    1007  07B9  29 7F                     AND #$7F        FOLD TABLE OVER 
    1008  07BB  10 0B                     BPL PAROUT 
    1009  07BD  C9 20             OSHRTR  CMP #$20 
    1010  07BF  90 04                     BCC SPROUT      IF CHAR<' ' THEN SUPPRESS 
    1011  07C1  C9 7D                     CMP #$7D 
    1012  07C3  90 03                     BCC PAROUT      ACCEPT IF CHAR< <SCREEN CLEAR> 
    1013  07C5  A0 01             SPROUT  LDY #SUCCES     RETURN SUCCESS IF CHARACTER SUPPRESSED 
    1014  07C7  60                        RTS 
    1015  07C8                      ERR LINE  ADDR  B1 B2 B3 B4                      6500 ASSEMBLER VER 1.0MR                     PAGE    6

    1016                          ; OUTPUT PARITY 
    1017  07C8                      
    1018  07C8                    PAROUT  REL RSTA,24    SAVE TRANSLATED CHARACTER 
    1019  07C8  8D               +        .BYTE   RSTA 
    1020  07C9  18               +        .BYTE   24 
    1021  07CA  23               +        .BYTE   *-Q+1 
    1022  07CB                   +Q       .SET * 
    1023  07CB                    PAROT2  REL RLDAX,26 
    1024  07CB  BD               +        .BYTE   RLDAX 
    1025  07CC  1A               +        .BYTE   26 
    1026  07CD  03               +        .BYTE   *-Q+1 
    1027  07CE                   +Q       .SET * 
    1028  07CE  29 03                     AND #$3 
    1029  07D0  F0 1E                     BEQ POTXIT      0=SKIP, IGNORE PARITY BIT 
    1030  07D2  C9 03                     CMP #3 
    1031  07D4  F0 0E                     BEQ STOUTP      3=SET-PARITY REQUESTED 
    1032  07D6  A8                        TAY             SAVE PARITY-REQUEST FLAG 
    1033  07D7                            REL RJSR,30    MASK ANY HI-BIT PRESENT 
    1034  07D7  20               +        .BYTE   RJSR 
    1035  07D8  1E               +        .BYTE   30 
    1036  07D9  0C               +        .BYTE   *-Q+1 
    1037  07DA                   +Q       .SET * 
    1038  07DA                            REL RJSR,32    FIND ORIGINAL PARITY 
    1039  07DA  20               +        .BYTE   RJSR 
    1040  07DB  20               +        .BYTE   32 
    1041  07DC  03               +        .BYTE   *-Q+1 
    1042  07DD                   +Q       .SET * 
    1043  07DD  98                        TYA 
    1044  07DE  29 02                     AND #2          2=EVEN PARITY, ODD ELSE 
    1045  07E0  F0 0C                     BEQ ODDOUT 
    1046  07E2  90 0C                     BCC POTXIT 
    1047  07E4                    STOUTP  REL RLDA,24 
    1048  07E4  AD               +        .BYTE   RLDA 
    1049  07E5  18               +        .BYTE   24 
    1050  07E6  0A               +        .BYTE   *-Q+1 
    1051  07E7                   +Q       .SET * 
    1052  07E7  09 80                     ORA #$80        SET PARITY BIT 
    1053  07E9                            REL RSTA,24 
    1054  07E9  8D               +        .BYTE   RSTA 
    1055  07EA  18               +        .BYTE   24 
    1056  07EB  05               +        .BYTE   *-Q+1 
    1057  07EC                   +Q       .SET * 
    1058  07EC  30 02                     BMI POTXIT      JUMP/BRANCH 
    1059  07EE  90 F4             ODDOUT  BCC STOUTP 
    1060  07F0  A6 21             POTXIT  LDX ICDNOZ      PARITY COMPLETE, RESTORE DEVICE NUMBER 
    1061  07F2                            REL RCPX,8 
    1062  07F2  EC               +        .BYTE   RCPX 
    1063  07F3  08               +        .BYTE   8 
    1064  07F4  09               +        .BYTE   *-Q+1 
    1065  07F5                   +Q       .SET * 
    1066  07F5  F0 2D                     BEQ PUTSTR      TEST FOR DEVICE ACTIVELY STREAMING 
    1067  07F7                      
    1068  07F7                            REL RJSR,34    A=32*(DEVICE#-1) 
    1069  07F7  20               +        .BYTE   RJSR ERR LINE  ADDR  B1 B2 B3 B4                      6500 ASSEMBLER VER 1.0MR                     PAGE    7

    1070  07F8  22               +        .BYTE   34 
    1071  07F9  05               +        .BYTE   *-Q+1 
    1072  07FA                   +Q       .SET * 
    1073  07FA                            REL RADCX,4 
    1074  07FA  7D               +        .BYTE   RADCX 
    1075  07FB  04               +        .BYTE   4 
    1076  07FC  03               +        .BYTE   *-Q+1 
    1077  07FD                   +Q       .SET * 
    1078  07FD  A8                        TAY             Y=INDEX INTO PROPER PUT BUFFER 
    1079  07FE                            REL RLDA,24 
    1080  07FE  AD               +        .BYTE   RLDA 
    1081  07FF  18               +        .BYTE   24 
    1082  0800  04               +        .BYTE   *-Q+1 
    1083  0801                   +Q       .SET * 
    1084  0801                            REL RSTAY,36   PUT DATA-BYTE INTO BUFFER 
    1085  0801  99               +        .BYTE   RSTAY 
    1086  0802  24               +        .BYTE   36 
    1087  0803  03               +        .BYTE   *-Q+1 
    1088  0804                   +Q       .SET * 
    1089  0804                            REL RINCX,4 
    1090  0804  FE               +        .BYTE   RINCX 
    1091  0805  04               +        .BYTE   4 
    1092  0806  03               +        .BYTE   *-Q+1 
    1093  0807                   +Q       .SET * 
    1094  0807                      
    1095  0807  C9 0D                     CMP #$D 
    1096  0809  F0 0A                     BEQ PTBFUL      IF <CR> THEN DUMP THE BUFFER 
    1097  080B                      
    1098  080B  A9 20                     LDA #RBFSIZ 
    1099  080D                            REL RCMPX,4    INCREMENT BUFFER COUNTER AND CHECK BUFFER FULL 
    1100  080D  DD               +        .BYTE   RCMPX 
    1101  080E  04               +        .BYTE   4 
    1102  080F  09               +        .BYTE   *-Q+1 
    1103  0810                   +Q       .SET * 
    1104  0810  F0 03                     BEQ PTBFUL 
    1105  0812  A0 01                     LDY #SUCCES 
    1106  0814  60                        RTS             ... EXIT IF BUFFER NOT FULL 
    1107                          ;       **** SPECIAL ENTRY POINT FOR FORCE **** 
    1108  0815                    PTBFUL  REL RJSR,10 
    1109  0815  20               +        .BYTE   RJSR 
    1110  0816  0A               +        .BYTE   10 
    1111  0817  08               +        .BYTE   *-Q+1 
    1112  0818                   +Q       .SET * 
    1113  0818  A0 80                     LDY #$80        Y=DCB STATUS BYTE 
    1114  081A  A9 00                     LDA #0 
    1115  081C                            REL RSTAX,4    CLEAR PUT-COUNTER 
    1116  081C  9D               +        .BYTE   RSTAX 
    1117  081D  04               +        .BYTE   4 
    1118  081E  07               +        .BYTE   *-Q+1 
    1119  081F                   +Q       .SET * 
    1120  081F  A9 57                     LDA #WRITE 
    1121  0821                            REL RJMP,22    EXIT THRU SIO WITH A WRITE DCB 
    1122  0821  4C               +        .BYTE   RJMP 
    1123  0822  16               +        .BYTE   22 ERR LINE  ADDR  B1 B2 B3 B4                      6500 ASSEMBLER VER 1.0MR                     PAGE    8

    1124  0823  05               +        .BYTE   *-Q+1 
    1125  0824                   +Q       .SET * 
    1126  0824                      
    1127  0824                    PUTSTR  REL RLDA,20 
    1128  0824  AD               +        .BYTE   RLDA 
    1129  0825  14               +        .BYTE   20 
    1130  0826  03               +        .BYTE   *-Q+1 
    1131  0827                   +Q       .SET * 
    1132  0827  C9 1F                     CMP #RBFSIZ-1 
    1133  0829  B0 F9                     BCS PUTSTR      TEST FOR PUT-BUFFER FULL, WAIT IF SO ... 
    1134  082B                            REL RJSR,34    A=32*(ACTIVE STREAM-1) 
    1135  082B  20               +        .BYTE   RJSR 
    1136  082C  22               +        .BYTE   34 
    1137  082D  07               +        .BYTE   *-Q+1 
    1138  082E                   +Q       .SET * 
    1139  082E  78                        SEI 
    1140  082F                            REL RADCX,4 
    1141  082F  7D               +        .BYTE   RADCX 
    1142  0830  04               +        .BYTE   4 
    1143  0831  04               +        .BYTE   *-Q+1 
    1144  0832                   +Q       .SET * 
    1145  0832  A8                        TAY             Y=POINTER INTO PROPER PUT-BUFFER 
    1146  0833                            REL RLDA,24    FETCH TRANSLATED CHARACTER 
    1147  0833  AD               +        .BYTE   RLDA 
    1148  0834  18               +        .BYTE   24 
    1149  0835  04               +        .BYTE   *-Q+1 
    1150  0836                   +Q       .SET * 
    1151  0836                            REL RSTAY,36   PLACE CHARACTER IN BUFFER 
    1152  0836  99               +        .BYTE   RSTAY 
    1153  0837  24               +        .BYTE   36 
    1154  0838  03               +        .BYTE   *-Q+1 
    1155  0839                   +Q       .SET * 
    1156  0839                            REL RLDYX,4 
    1157  0839  BC               +        .BYTE   RLDYX 
    1158  083A  04               +        .BYTE   4 
    1159  083B  03               +        .BYTE   *-Q+1 
    1160  083C                   +Q       .SET * 
    1161  083C                            REL RJSR,38    CIRCULAR INCREMENT 
    1162  083C  20               +        .BYTE   RJSR 
    1163  083D  26               +        .BYTE   38 
    1164  083E  03               +        .BYTE   *-Q+1 
    1165  083F                   +Q       .SET * 
    1166  083F                            REL RSTAX,4 
    1167  083F  9D               +        .BYTE   RSTAX 
    1168  0840  04               +        .BYTE   4 
    1169  0841  03               +        .BYTE   *-Q+1 
    1170  0842                   +Q       .SET * 
    1171  0842                            REL RINC,20    COUNT A BYTE IN THE BUFFER 
    1172  0842  EE               +        .BYTE   RINC 
    1173  0843  14               +        .BYTE   20 
    1174  0844  03               +        .BYTE   *-Q+1 
    1175  0845                   +Q       .SET * 
    1176  0845  A5 10                     LDA POKMSK 
    1177  0847                            REL RLDYX,26 ERR LINE  ADDR  B1 B2 B3 B4                      6500 ASSEMBLER VER 1.0MR                     PAGE    9

    1178  0847  BC               +        .BYTE   RLDYX 
    1179  0848  1A               +        .BYTE   26 
    1180  0849  05               +        .BYTE   *-Q+1 
    1181  084A                   +Q       .SET * 
    1182  084A  30 04                     BMI TWOSTP      TEST FOR ONE OR TWO STOP BIT MODE 
    1183  084C  09 18                     ORA #$18        ONE-STOP BIT CASE 
    1184  084E  D0 02                     BNE ONESTP 
    1185  0850  09 08             TWOSTP  ORA #$8         TWO-STOP BIT CASE 
    1186  0852  85 10             ONESTP  STA POKMSK 
    1187  0854  8D 0E D2                  STA IRQEN 
    1188  0857  A0 00                     LDY #0 
    1189  0859                            REL RSTY,12    SET ALL-DONE FLAG TO FALSE 
    1190  0859  8C               +        .BYTE   RSTY 
    1191  085A  0C               +        .BYTE   12 
    1192  085B  12               +        .BYTE   *-Q+1 
    1193  085C                   +Q       .SET * 
    1194  085C  58                        CLI 
    1195  085D  C8                        INY 
    1196  085E  60                        RTS             RETURN SUCCESS 
    1197  085F                      
    1198  085F                      
    1199  085F                    RHGET   REL RJSR,0     TEST DEVICE NUMBER FOR VALIDITY 
    1200  085F  20               +        .BYTE   RJSR 
    1201  0860  00               +        .BYTE   0 
    1202  0861  06               +        .BYTE   *-Q+1 
    1203  0862                   +Q       .SET * 
    1204  0862                      
    1205  0862                            REL RLDAX,2 
    1206  0862  BD               +        .BYTE   RLDAX 
    1207  0863  02               +        .BYTE   2 
    1208  0864  03               +        .BYTE   *-Q+1 
    1209  0865                   +Q       .SET * 
    1210  0865  29 04                     AND #4 
    1211  0867  D0 03                     BNE READOK      TEST FOR READ PERMISSION 
    1212  0869  A0 83                     LDY #WRONLY 
    1213  086B  60                        RTS             RETURN ERROR STATUS 
    1214  086C                      
    1215  086C                    READOK  REL RCPX,8 
    1216  086C  EC               +        .BYTE   RCPX 
    1217  086D  08               +        .BYTE   8 
    1218  086E  0A               +        .BYTE   *-Q+1 
    1219  086F                   +Q       .SET * 
    1220  086F  F0 03                     BEQ GETSTR      TEST FOR STREAM ACTIVE, BRANCH IF SO 
    1221  0871  A0 9A                     LDY #NOSTAC     ELSE, ERROR NO INPUT ALLOWED 
    1222  0873  60                        RTS 
    1223  0874                      
    1224  0874  A0 04             GETSTR  LDY #4 
    1225  0876  A2 06                     LDX #6 
    1226  0878  58                GBFMTY  CLI             CLEAR INTERRUPTS TO ALLOW ESCAPE 
    1227  0879  78                        SEI             INHIBIT INTERRUPTS TO PREVENT CONFUSION 
    1228  087A                            REL RJSR,40    COMPARE NEXTIN AND NXTOUT POINTERS 
    1229  087A  20               +        .BYTE   RJSR 
    1230  087B  28               +        .BYTE   40 
    1231  087C  0E               +        .BYTE   *-Q+1 ERR LINE  ADDR  B1 B2 B3 B4                      6500 ASSEMBLER VER 1.0MR                     PAGE   10

    1232  087D                   +Q       .SET * 
    1233  087D  F0 F9                     BEQ GBFMTY      WAIT LOOP (INTERUPTS INHIBITED ON EXIT) 
    1234  087F  A5 2C                     LDA ICSPRZ 
    1235  0881  48                        PHA 
    1236  0882  A5 2D                     LDA ICSPRZ+1 
    1237  0884  48                        PHA             SAVE ZERO PAGE BYTES ON STACK 
    1238  0885                            REL RLDA,42 
    1239  0885  AD               +        .BYTE   RLDA 
    1240  0886  2A               +        .BYTE   42 
    1241  0887  0B               +        .BYTE   *-Q+1 
    1242  0888                   +Q       .SET * 
    1243  0888  85 2C                     STA ICSPRZ 
    1244  088A                            REL RLDA,44 
    1245  088A  AD               +        .BYTE   RLDA 
    1246  088B  2C               +        .BYTE   44 
    1247  088C  05               +        .BYTE   *-Q+1 
    1248  088D                   +Q       .SET * 
    1249  088D  85 2D                     STA ICSPRZ+1    SET-UP AN INDIRECT POINTER 
    1250  088F  A0 00                     LDY #0 
    1251  0891  B1 2C                     LDA (ICSPRZ),Y  FETCH NEXT-OUT DATA BYTE 
    1252  0893                            REL RSTA,24    SAVE UNTRANSLATED CHARACTER 
    1253  0893  8D               +        .BYTE   RSTA 
    1254  0894  18               +        .BYTE   24 
    1255  0895  09               +        .BYTE   *-Q+1 
    1256  0896                   +Q       .SET * 
    1257  0896  68                        PLA 
    1258  0897  85 2D                     STA ICSPRZ+1 
    1259  0899  68                        PLA 
    1260  089A  85 2C                     STA ICSPRZ      RETURN BORROWED ZERO PAGE 
    1261  089C  38                        SEC 
    1262  089D                            REL RLDA,46 
    1263  089D  AD               +        .BYTE   RLDA 
    1264  089E  2E               +        .BYTE   46 
    1265  089F  0A               +        .BYTE   *-Q+1 
    1266  08A0                   +Q       .SET * 
    1267  08A0  E9 01                     SBC #1 
    1268  08A2                            REL RSTA,46 
    1269  08A2  8D               +        .BYTE   RSTA 
    1270  08A3  2E               +        .BYTE   46 
    1271  08A4  05               +        .BYTE   *-Q+1 
    1272  08A5                   +Q       .SET * 
    1273  08A5  B0 03                     BCS GTSBOK 
    1274  08A7                            REL RDEC,48 
    1275  08A7  CE               +        .BYTE   RDEC 
    1276  08A8  30               +        .BYTE   48 
    1277  08A9  05               +        .BYTE   *-Q+1 
    1278  08AA                   +Q       .SET * 
    1279  08AA  A2 02             GTSBOK  LDX #2 
    1280  08AC                            REL RJSR,50    16-BIT CIRCULAR INCREMENT OF NXTOUT POINTER 
    1281  08AC  20               +        .BYTE   RJSR 
    1282  08AD  32               +        .BYTE   50 
    1283  08AE  05               +        .BYTE   *-Q+1 
    1284  08AF                   +Q       .SET * 
    1285  08AF  58                        CLI ERR LINE  ADDR  B1 B2 B3 B4                      6500 ASSEMBLER VER 1.0MR                     PAGE   11

    1286  08B0  A6 21                     LDX ICDNOZ      RESTORE THE X-REGISTER 
    1287  08B2                      
    1288  08B2                      
    1289                          ; INPUT PARITY CHECKING 
    1290  08B2                      
    1291  08B2                            REL RLDAX,26 
    1292  08B2  BD               +        .BYTE   RLDAX 
    1293  08B3  1A               +        .BYTE   26 
    1294  08B4  06               +        .BYTE   *-Q+1 
    1295  08B5                   +Q       .SET * 
    1296  08B5  4A                        LSR A 
    1297  08B6  4A                        LSR A 
    1298  08B7  29 03                     AND #3          ISOLATE INPUT PARITY FLAGS 
    1299  08B9  F0 23                     BEQ INTRNS      0=SKIP, IGNORE PARITY 
    1300  08BB  C9 03                     CMP #3 
    1301  08BD  F0 1C                     BEQ PINCLR      3=CLEAR PARITY BIT, IGNORE PARITY 
    1302  08BF  A8                        TAY 
    1303  08C0                            REL RLDA,24 
    1304  08C0  AD               +        .BYTE   RLDA 
    1305  08C1  18               +        .BYTE   24 
    1306  08C2  0E               +        .BYTE   *-Q+1 
    1307  08C3                   +Q       .SET * 
    1308  08C3                            REL RJSR,32    DERIVE PARITY 
    1309  08C3  20               +        .BYTE   RJSR 
    1310  08C4  20               +        .BYTE   32 
    1311  08C5  03               +        .BYTE   *-Q+1 
    1312  08C6                   +Q       .SET * 
    1313  08C6  98                        TYA 
    1314  08C7  29 02                     AND #2 
    1315  08C9  F0 0E                     BEQ PINODD      2=EVEN PARITY CHECKING, ODD CHECKING ELSE 
    1316  08CB  90 0E                     BCC PINCLR 
    1317  08CD  A6 21             PINERR  LDX ICDNOZ      RESTORE DEVICE NUMBER 
    1318  08CF  A9 20                     LDA #$20 
    1319  08D1                            REL RORAX,6    SET PARITY ERROR BIT 
    1320  08D1  1D               +        .BYTE   RORAX 
    1321  08D2  06               +        .BYTE   6 
    1322  08D3  0E               +        .BYTE   *-Q+1 
    1323  08D4                   +Q       .SET * 
    1324  08D4                            REL RSTAX,6 
    1325  08D4  9D               +        .BYTE   RSTAX 
    1326  08D5  06               +        .BYTE   6 
    1327  08D6  03               +        .BYTE   *-Q+1 
    1328  08D7                   +Q       .SET * 
    1329  08D7  D0 02                     BNE PINCLR      JUMP/BRANCH TO EXIT 
    1330  08D9  90 F2             PINODD  BCC PINERR 
    1331  08DB                    PINCLR  REL RJSR,30    CLEAR ANY PARITY BIT 
    1332  08DB  20               +        .BYTE   RJSR 
    1333  08DC  1E               +        .BYTE   30 
    1334  08DD  07               +        .BYTE   *-Q+1 
    1335  08DE                   +Q       .SET * 
    1336                          ; 
    1337                          ; INPUT TRANSLATION 
    1338                          ; 
    1339  08DE  A6 21             INTRNS  LDX ICDNOZ      RESTORE DEVICE NUMBER ERR LINE  ADDR  B1 B2 B3 B4                      6500 ASSEMBLER VER 1.0MR                     PAGE   12

    1340  08E0                            REL RLDAX,26 
    1341  08E0  BD               +        .BYTE   RLDAX 
    1342  08E1  1A               +        .BYTE   26 
    1343  08E2  05               +        .BYTE   *-Q+1 
    1344  08E3                   +Q       .SET * 
    1345  08E3  29 30                     AND #$30        STRIP ALL BUT TRANSLATE MODE 
    1346  08E5  C9 20                     CMP #$20 
    1347  08E7  90 06                     BCC DOTRNS 
    1348  08E9                            REL RLDA,24    NO TRANSLATION IS DESIRED 
    1349  08E9  AD               +        .BYTE   RLDA 
    1350  08EA  18               +        .BYTE   24 
    1351  08EB  09               +        .BYTE   *-Q+1 
    1352  08EC                   +Q       .SET * 
    1353  08EC  A0 01                     LDY #SUCCES 
    1354  08EE  60                        RTS             RETURN SUCCESS 
    1355  08EF                      
    1356  08EF  A8                DOTRNS  TAY 
    1357  08F0                            REL RJSR,30    MASK PARITY BIT (ASCII IS A 7-BIT CODE) 
    1358  08F0  20               +        .BYTE   RJSR 
    1359  08F1  1E               +        .BYTE   30 
    1360  08F2  07               +        .BYTE   *-Q+1 
    1361  08F3                   +Q       .SET * 
    1362  08F3  C9 0D                     CMP #$D 
    1363  08F5  D0 04                     BNE INOEOL      TEST FOR <CR> ==> <EOL> TRANSLATION 
    1364  08F7  A9 9B                     LDA #$9B 
    1365  08F9  D0 0F                     BNE INTRXT      EXIT, TRANSLATION COMPLETE 
    1366  08FB  C0 00             INOEOL  CPY #0 
    1367  08FD  F0 0B                     BEQ INTRXT      LONG TRANSLATION DESIRED 
    1368  08FF  C9 20                     CMP #$20 
    1369  0901  90 04                     BCC SUPRIN      TEST FOR VALUE UNACCEPTABLY LOW 
    1370  0903  C9 7D                     CMP #$7D 
    1371  0905  90 03                     BCC INTRXT      TEST FOR VALUE UNACCEPTABLY HIGH (JOIN IF NOT) 
    1372  0907                    SUPRIN  REL RLDAX,52   FIND INPUT SUPPRESSION TRANSLATE CHAR 
    1373  0907  BD               +        .BYTE   RLDAX 
    1374  0908  34               +        .BYTE   52 
    1375  0909  17               +        .BYTE   *-Q+1 
    1376  090A                   +Q       .SET * 
    1377  090A                      
    1378  090A  A0 01             INTRXT  LDY #SUCCES     EXIT, SUCCESS 
    1379  090C  60                        RTS 
    1380  090D                      
    1381  090D                    RHSTAT  REL RJSR,0     TEST DEVICE# FOR VALIDITY 
    1382  090D  20               +        .BYTE   RJSR 
    1383  090E  00               +        .BYTE   0 
    1384  090F  06               +        .BYTE   *-Q+1 
    1385  0910                   +Q       .SET * 
    1386  0910                      
    1387  0910                            REL RLDAX,6 
    1388  0910  BD               +        .BYTE   RLDAX 
    1389  0911  06               +        .BYTE   6 
    1390  0912  03               +        .BYTE   *-Q+1 
    1391  0913                   +Q       .SET * 
    1392  0913  8D EA 02                  STA DVSTAT      FETCH AND STORE DEVICE STATUS 
    1393  0916                            REL RSTA,24    SAVE FOR BLOCK MODE STATUS ERR LINE  ADDR  B1 B2 B3 B4                      6500 ASSEMBLER VER 1.0MR                     PAGE   13

    1394  0916  8D               +        .BYTE   RSTA 
    1395  0917  18               +        .BYTE   24 
    1396  0918  06               +        .BYTE   *-Q+1 
    1397  0919                   +Q       .SET * 
    1398  0919  A9 00                     LDA #0 
    1399  091B                            REL RSTAX,6    RESET DEVICE ERROR STATUS BYTE 
    1400  091B  9D               +        .BYTE   RSTAX 
    1401  091C  06               +        .BYTE   6 
    1402  091D  05               +        .BYTE   *-Q+1 
    1403  091E                   +Q       .SET * 
    1404  091E                            REL RCPX,8 
    1405  091E  EC               +        .BYTE   RCPX 
    1406  091F  08               +        .BYTE   8 
    1407  0920  03               +        .BYTE   *-Q+1 
    1408  0921                   +Q       .SET * 
    1409  0921  F0 27                     BEQ STASTR      TEST FOR ACTIVE STREAM 
    1410                          ;       **** FUNKY ENTRY POINT FOR INIT.TIME STATUS REQUEST 
    1411  0923  A9 EA             STFUNK  LDA #.LOW.DVSTAT 
    1412  0925  8D 04 03                  STA DBUFLO 
    1413  0928  A9 02                     LDA #.HIGH.DVSTAT 
    1414  092A  8D 05 03                  STA DBUFHI      SET-UP DCB BUFFER POINTER 
    1415  092D  A9 02                     LDA #2 
    1416  092F  8D 08 03                  STA DBYTLO 
    1417  0932  A9 00                     LDA #0 
    1418  0934  8D 09 03                  STA DBYTHI      SET-UP DCB BUFFER LENGTH 
    1419  0937  A0 40                     LDY #$40 
    1420  0939  A9 53                     LDA #RSTAT 
    1421  093B                            REL RJSR,22    CREATE SIO CALL 
    1422  093B  20               +        .BYTE   RJSR 
    1423  093C  16               +        .BYTE   22 
    1424  093D  1D               +        .BYTE   *-Q+1 
    1425  093E                   +Q       .SET * 
    1426  093E                            REL RLDA,24 
    1427  093E  AD               +        .BYTE   RLDA 
    1428  093F  18               +        .BYTE   24 
    1429  0940  03               +        .BYTE   *-Q+1 
    1430  0941                   +Q       .SET * 
    1431  0941  0D EA 02                  ORA DVSTAT      INSERT PARITY ERROR BIT 
    1432  0944  8D EA 02                  STA DVSTAT 
    1433  0947  C0 00                     CPY #0          RESET I/O SUCCESS/FAILURE FLAG 
    1434  0949  60                        RTS 
    1435  094A                      
    1436  094A  A0 03             STASTR  LDY #3 
    1437  094C                    STSTLP  REL RLDAY,54 
    1438  094C  B9               +        .BYTE   RLDAY 
    1439  094D  36               +        .BYTE   54 
    1440  094E  0E               +        .BYTE   *-Q+1 
    1441  094F                   +Q       .SET * 
    1442  094F  99 EA 02                  STA DVSTAT,Y 
    1443  0952  88                        DEY 
    1444  0953  D0 F7                     BNE STSTLP      COPY OVER STATUS BYTES FOR USER 
    1445  0955  C8                        INY 
    1446  0956  60                        RTS             RETURN SUCCESS 
    1447  0957                      ERR LINE  ADDR  B1 B2 B3 B4                      6500 ASSEMBLER VER 1.0MR                     PAGE   14

    1448  0957                    RHSPEC  REL RJSR,0     TEST DEVICE NUMBER FOR VALIDITY 
    1449  0957  20               +        .BYTE   RJSR 
    1450  0958  00               +        .BYTE   0 
    1451  0959  0B               +        .BYTE   *-Q+1 
    1452  095A                   +Q       .SET * 
    1453  095A  A5 22                     LDA ICCOMZ 
    1454  095C  29 0F                     AND #$F 
    1455  095E  C9 09                     CMP #9          TEST FOR LO-NIBBLE > MAX VALID 
    1456  0960  B0 0D                     BCS XIOERR 
    1457  0962  A8                        TAY             Y=INDEX (ASSUMED VALID) 
    1458  0963  4A                        LSR A 
    1459  0964  B0 09                     BCS XIOERR      ERROR IF INDEX IS ODD 
    1460  0966                            REL RLDAY,56 
    1461  0966  B9               +        .BYTE   RLDAY 
    1462  0967  38               +        .BYTE   56 
    1463  0968  0F               +        .BYTE   *-Q+1 
    1464  0969                   +Q       .SET * 
    1465  0969  48                        PHA 
    1466  096A                            REL RLDAY,58 
    1467  096A  B9               +        .BYTE   RLDAY 
    1468  096B  3A               +        .BYTE   58 
    1469  096C  04               +        .BYTE   *-Q+1 
    1470  096D                   +Q       .SET * 
    1471  096D  48                        PHA             INDIRECT JUMP TO PROPER ENTRY POINT 
    1472  096E  60                        RTS 
    1473  096F                      
    1474  096F  A0 84             XIOERR  LDY #NVALID 
    1475  0971  60                        RTS             ERROR, COMMAND IS INVALID 
    1476  0972                      
    1477  0972                      
    1478  0972                    STREAM  REL RLDAX,2 
    1479  0972  BD               +        .BYTE   RLDAX 
    1480  0973  02               +        .BYTE   2 
    1481  0974  08               +        .BYTE   *-Q+1 
    1482  0975                   +Q       .SET * 
    1483  0975  30 03                     BMI STROPN      TEST FOR PORT OPEN 
    1484  0977  A0 85                     LDY #NOTOPN 
    1485  0979  60                        RTS             RETURN ERROR IF NOT 
    1486  097A                    STROPN  REL RBIT,8 
    1487  097A  2C               +        .BYTE   RBIT 
    1488  097B  08               +        .BYTE   8 
    1489  097C  08               +        .BYTE   *-Q+1 
    1490  097D                   +Q       .SET * 
    1491  097D  70 03                     BVS STROK2      TEST FOR ANOTHER STREAM ALREADY ACTIVE 
    1492  097F  A0 99                     LDY #STACTV 
    1493  0981  60                        RTS             RETURN ERROR IF SO 
    1494  0982  4A                STROK2  LSR A 
    1495  0983  B0 03                     BCS STROK1 
    1496  0985  A0 97                     LDY #NOSTER     RETURN ERROR IF PORT NOT OPEN FOR STREAM 
    1497  0987  60                        RTS 
    1498  0988  4A                STROK1  LSR A 
    1499  0989  4A                        LSR A 
    1500  098A  90 4F                     BCC STNORD      TEST FOR DEVICE OPEN FOR READ 
    1501  098C                      ERR LINE  ADDR  B1 B2 B3 B4                      6500 ASSEMBLER VER 1.0MR                     PAGE   15

    1502  098C  A5 2A                     LDA ICAX1Z 
    1503  098E  F0 20                     BEQ SYSBUF      AUX1=0 ==> USE SYSTEM BUFFERS 
    1504  0990                      
    1505  0990  A5 28                     LDA ICBLLZ 
    1506  0992  05 29                     ORA ICBLHZ 
    1507  0994  F0 1A                     BEQ SYSBUF      TEST FOR SYSTEM BUFFER USAGE(LENGTH=0) 
    1508  0996                      
    1509  0996  18                        CLC 
    1510  0997  A5 24                     LDA ICBALZ 
    1511  0999                            REL RSTA,60 
    1512  0999  8D               +        .BYTE   RSTA 
    1513  099A  3C               +        .BYTE   60 
    1514  099B  1F               +        .BYTE   *-Q+1 
    1515  099C                   +Q       .SET * 
    1516  099C  65 28                     ADC ICBLLZ 
    1517  099E                            REL RSTA,62    COMPUTE LO-BYTE OF BUFFER POINTER 
    1518  099E  8D               +        .BYTE   RSTA 
    1519  099F  3E               +        .BYTE   62 
    1520  09A0  05               +        .BYTE   *-Q+1 
    1521  09A1                   +Q       .SET * 
    1522  09A1  A5 25                     LDA ICBAHZ 
    1523  09A3                            REL RSTA,64 
    1524  09A3  8D               +        .BYTE   RSTA 
    1525  09A4  40               +        .BYTE   64 
    1526  09A5  05               +        .BYTE   *-Q+1 
    1527  09A6                   +Q       .SET * 
    1528  09A6  65 29                     ADC ICBLHZ 
    1529  09A8                            REL RSTA,66    COMPUTE HI-BYTE OF BUFFER POINTER 
    1530  09A8  8D               +        .BYTE   RSTA 
    1531  09A9  42               +        .BYTE   66 
    1532  09AA  05               +        .BYTE   *-Q+1 
    1533  09AB                   +Q       .SET * 
    1534  09AB  90 23                     BCC RDJOIN 
    1535  09AD  A0 98                     LDY #BADBUF     IF OVERFLOW THEN ERROR 
    1536  09AF  60                        RTS 
    1537  09B0                      
    1538  09B0                    SYSBUF  REL RJSR,34    PREPARE TO OPEN A SYSTEM BUFFER INPUT STREAM 
    1539  09B0  20               +        .BYTE   RJSR 
    1540  09B1  22               +        .BYTE   34 
    1541  09B2  08               +        .BYTE   *-Q+1 
    1542  09B3                   +Q       .SET * 
    1543  09B3  69 78                     .BYTE $69,120 
    1544  09B5                            REL RSTA,60 
    1545  09B5  8D               +        .BYTE   RSTA 
    1546  09B6  3C               +        .BYTE   60 
    1547  09B7  05               +        .BYTE   *-Q+1 
    1548  09B8                   +Q       .SET * 
    1549  09B8  A9 79                     .BYTE $A9,121 
    1550  09BA  69 00                     ADC #0 
    1551  09BC                            REL RSTA,64    SET BOTTOM-OF-BUFFER TO POINT TO SYSTEM 
    1552  09BC  8D               +        .BYTE   RSTA 
    1553  09BD  40               +        .BYTE   64 
    1554  09BE  07               +        .BYTE   *-Q+1 
    1555  09BF                   +Q       .SET * ERR LINE  ADDR  B1 B2 B3 B4                      6500 ASSEMBLER VER 1.0MR                     PAGE   16

    1556  09BF  18                        CLC 
    1557  09C0                            REL RLDA,60 
    1558  09C0  AD               +        .BYTE   RLDA 
    1559  09C1  3C               +        .BYTE   60 
    1560  09C2  04               +        .BYTE   *-Q+1 
    1561  09C3                   +Q       .SET * 
    1562  09C3  69 1F                     ADC #RBFSIZ-1 
    1563  09C5                            REL RSTA,62 
    1564  09C5  8D               +        .BYTE   RSTA 
    1565  09C6  3E               +        .BYTE   62 
    1566  09C7  05               +        .BYTE   *-Q+1 
    1567  09C8                   +Q       .SET * 
    1568  09C8                            REL RLDA,64 
    1569  09C8  AD               +        .BYTE   RLDA 
    1570  09C9  40               +        .BYTE   64 
    1571  09CA  03               +        .BYTE   *-Q+1 
    1572  09CB                   +Q       .SET * 
    1573  09CB  69 00                     ADC #0 
    1574  09CD                            REL RSTA,66    COMPUTE TOP-OF-BUFFER POINTER IN SYSTEM BUFFER 
    1575  09CD  8D               +        .BYTE   RSTA 
    1576  09CE  42               +        .BYTE   66 
    1577  09CF  05               +        .BYTE   *-Q+1 
    1578  09D0                   +Q       .SET * 
    1579  09D0                      
    1580  09D0  A0 06             RDJOIN  LDY #6 
    1581  09D2                    STINLP  REL RJSR,68    SET POINTERS TO BOTTOM-OF-BUFFER 
    1582  09D2  20               +        .BYTE   RJSR 
    1583  09D3  44               +        .BYTE   68 
    1584  09D4  05               +        .BYTE   *-Q+1 
    1585  09D5                   +Q       .SET * 
    1586  09D5  88                        DEY 
    1587  09D6  88                        DEY             SET-UP INPUT AND OUTPUT POINTERS 
    1588  09D7  C0 02                     CPY #2 
    1589  09D9  D0 F7                     BNE STINLP 
    1590  09DB                      
    1591  09DB  A6 21             STNORD  LDX ICDNOZ 
    1592  09DD                            REL RLDAX,2 
    1593  09DD  BD               +        .BYTE   RLDAX 
    1594  09DE  02               +        .BYTE   2 
    1595  09DF  0B               +        .BYTE   *-Q+1 
    1596  09E0                   +Q       .SET * 
    1597  09E0  29 08                     AND #$8         TEST FOR WRITE PERMISSION 
    1598  09E2  F0 08                     BEQ STNOWT 
    1599  09E4  A9 00                     LDA #0 
    1600  09E6                            REL RSTAX,4 
    1601  09E6  9D               +        .BYTE   RSTAX 
    1602  09E7  04               +        .BYTE   4 
    1603  09E8  09               +        .BYTE   *-Q+1 
    1604  09E9                   +Q       .SET * 
    1605  09E9                            REL RSTAX,70   INITIALIZE OUTPUT-STREAM PUT AND GET POINTERS 
    1606  09E9  9D               +        .BYTE   RSTAX 
    1607  09EA  46               +        .BYTE   70 
    1608  09EB  03               +        .BYTE   *-Q+1 
    1609  09EC                   +Q       .SET * ERR LINE  ADDR  B1 B2 B3 B4                      6500 ASSEMBLER VER 1.0MR                     PAGE   17

    1610  09EC                      
    1611  09EC  8D 09 03          STNOWT  STA DBYTHI 
    1612  09EF  A9 12                     .BYTE $A9,18 
    1613  09F1  8D 04 03                  STA DBUFLO 
    1614  09F4  A9 13                     .BYTE $A9,19 
    1615  09F6  8D 05 03                  STA DBUFHI 
    1616  09F9                            REL RLDAX,2 
    1617  09F9  BD               +        .BYTE   RLDAX 
    1618  09FA  02               +        .BYTE   2 
    1619  09FB  10               +        .BYTE   *-Q+1 
    1620  09FC                   +Q       .SET * 
    1621  09FC  8D 0A 03                  STA DAUX1       DAUX1=IO PERMISSION FOR CONTROLLER 
    1622  09FF  A9 09                     LDA #9 
    1623  0A01  8D 08 03                  STA DBYTLO      CREATE A STREAM DCB 
    1624  0A04  A0 40                     LDY #$40 
    1625  0A06  A9 58                     LDA #STRCOM 
    1626  0A08                            REL RJSR,22    EXECUTE AN SIO CALL TO CONTROLLER 
    1627  0A08  20               +        .BYTE   RJSR 
    1628  0A09  16               +        .BYTE   22 
    1629  0A0A  0F               +        .BYTE   *-Q+1 
    1630  0A0B                   +Q       .SET * 
    1631  0A0B  10 01                     BPL STROK4 
    1632  0A0D  60                        RTS             RETURN IF ERROR ENCOUNTERED DURING SIO 
    1633  0A0E  78                STROK4  SEI 
    1634  0A0F  A9 73                     LDA #$73 
    1635  0A11  8D 0F D2                  STA SKCTL 
    1636  0A14                            REL RLDA,72 
    1637  0A14  AD               +        .BYTE   RLDA 
    1638  0A15  48               +        .BYTE   72 
    1639  0A16  0C               +        .BYTE   *-Q+1 
    1640  0A17                   +Q       .SET * 
    1641  0A17  8D 08 D2                  STA AUDCTL      SET-UP SUPPLIED AUDIO CONTROL 
    1642  0A1A  A0 07                     LDY #7 
    1643  0A1C                    STRCTL  REL RLDAY,18 
    1644  0A1C  B9               +        .BYTE   RLDAY 
    1645  0A1D  12               +        .BYTE   18 
    1646  0A1E  08               +        .BYTE   *-Q+1 
    1647  0A1F                   +Q       .SET * 
    1648  0A1F  99 00 D2                  STA AUDF1,Y 
    1649  0A22  88                        DEY 
    1650  0A23  10 F7                     BPL STRCTL      SET-UP BAUD RATE SUPPLIED BY CONTROLLER 
    1651  0A25                      
    1652  0A25  A2 05                     LDX #5 
    1653  0A27  BD 0A 02          STVCTL  LDA VSERIN,X 
    1654  0A2A                            REL RSTAX,18 
    1655  0A2A  9D               +        .BYTE   RSTAX 
    1656  0A2B  12               +        .BYTE   18 
    1657  0A2C  0E               +        .BYTE   *-Q+1 
    1658  0A2D                   +Q       .SET * 
    1659  0A2D                            REL RLDAX,74 
    1660  0A2D  BD               +        .BYTE   RLDAX 
    1661  0A2E  4A               +        .BYTE   74 
    1662  0A2F  03               +        .BYTE   *-Q+1 
    1663  0A30                   +Q       .SET * ERR LINE  ADDR  B1 B2 B3 B4                      6500 ASSEMBLER VER 1.0MR                     PAGE   18

    1664  0A30  9D 0A 02                  STA VSERIN,X    REPLACE ALL SYSTEM SIO INTERRUPTS WITH OWN 
    1665  0A33  CA                        DEX 
    1666  0A34  10 F1                     BPL STVCTL 
    1667  0A36                      
    1668  0A36  AD 16 02                  LDA VIMIRQ 
    1669  0A39                            REL RSTA,14 
    1670  0A39  8D               +        .BYTE   RSTA 
    1671  0A3A  0E               +        .BYTE   14 
    1672  0A3B  0C               +        .BYTE   *-Q+1 
    1673  0A3C                   +Q       .SET * 
    1674  0A3C  A9 7A                     .BYTE $A9,122 
    1675  0A3E  8D 16 02                  STA VIMIRQ 
    1676  0A41  AD 17 02                  LDA VIMIRQ+1 
    1677  0A44                            REL RSTA,16 
    1678  0A44  8D               +        .BYTE   RSTA 
    1679  0A45  10               +        .BYTE   16 
    1680  0A46  0B               +        .BYTE   *-Q+1 
    1681  0A47                   +Q       .SET * 
    1682  0A47  A9 7B                     .BYTE $A9,123 
    1683  0A49  8D 17 02                  STA VIMIRQ+1    REPLACE AND SAVE MAIN SYSTEM IRQ VECTOR 
    1684  0A4C                      
    1685  0A4C  A9 00                     LDA #0 
    1686  0A4E  A0 02                     LDY #2 
    1687  0A50                    STRZLN  REL RSTAY,46 
    1688  0A50  99               +        .BYTE   RSTAY 
    1689  0A51  2E               +        .BYTE   46 
    1690  0A52  0C               +        .BYTE   *-Q+1 
    1691  0A53                   +Q       .SET * 
    1692  0A53  88                        DEY 
    1693  0A54  10 FA                     BPL STRZLN      CLEAR ALL STATUS COUNTERS 
    1694  0A56                      
    1695  0A56  A6 21                     LDX ICDNOZ 
    1696  0A58                            REL RLDAX,2 
    1697  0A58  BD               +        .BYTE   RLDAX 
    1698  0A59  02               +        .BYTE   2 
    1699  0A5A  08               +        .BYTE   *-Q+1 
    1700  0A5B                   +Q       .SET * 
    1701  0A5B  29 04                     AND #4 
    1702  0A5D  F0 09                     BEQ NOINPT      TEST FOR READ PERMISSION 
    1703  0A5F                      
    1704  0A5F  A5 10                     LDA POKMSK 
    1705  0A61  09 20                     ORA #$20 
    1706  0A63  8D 0E D2                  STA IRQEN 
    1707  0A66  85 10                     STA POKMSK      ENABLE INPUT INTERRUPT 
    1708  0A68                      
    1709  0A68                    NOINPT  REL RSTX,8     RECOGNIZE ACTIVE STREAM 
    1710  0A68  8E               +        .BYTE   RSTX 
    1711  0A69  08               +        .BYTE   8 
    1712  0A6A  10               +        .BYTE   *-Q+1 
    1713  0A6B                   +Q       .SET * 
    1714  0A6B                            REL RSTX,12    RESET ALL DONE FLAG TO TRUE (NON-ZERO) 
    1715  0A6B  8E               +        .BYTE   RSTX 
    1716  0A6C  0C               +        .BYTE   12 
    1717  0A6D  03               +        .BYTE   *-Q+1 ERR LINE  ADDR  B1 B2 B3 B4                      6500 ASSEMBLER VER 1.0MR                     PAGE   19

    1718  0A6E                   +Q       .SET * 
    1719  0A6E  58                        CLI 
    1720  0A6F  D0 36                     BNE SPCXIT      EXIT AND RESTORE AUX1 OF THE IOCB 
    1721  0A71                      
    1722  0A71                    FORCE   REL RLDAX,2 
    1723  0A71  BD               +        .BYTE   RLDAX 
    1724  0A72  02               +        .BYTE   2 
    1725  0A73  06               +        .BYTE   *-Q+1 
    1726  0A74                   +Q       .SET * 
    1727  0A74  30 03                     BMI FRCOPN 
    1728  0A76  A0 85                     LDY #NOTOPN     ERROR IF PORT NOT OPEN 
    1729  0A78  60                        RTS 
    1730  0A79  29 08             FRCOPN  AND #$8 
    1731  0A7B  D0 03                     BNE OKFORC      CHECK FOR WRITE PERMISSION 
    1732  0A7D  A0 87                     LDY #RDONLY     ERROR, OPEN FOR READ ONLY 
    1733  0A7F  60                        RTS 
    1734  0A80                    OKFORC  REL RLDAX,4 
    1735  0A80  BD               +        .BYTE   RLDAX 
    1736  0A81  04               +        .BYTE   4 
    1737  0A82  0F               +        .BYTE   *-Q+1 
    1738  0A83                   +Q       .SET * 
    1739  0A83  F0 22                     BEQ SPCXIT      EXIT IF NOTHING IN BUFFER 
    1740  0A85                            REL RJSR,76    ** SPECIAL ENTRY ENTRY TO PUT THE BUFFER ** 
    1741  0A85  20               +        .BYTE   RJSR 
    1742  0A86  4C               +        .BYTE   76 
    1743  0A87  05               +        .BYTE   *-Q+1 
    1744  0A88                   +Q       .SET * 
    1745  0A88  D0 1F                     BNE SPXIT2      EXIT, AND RESTORE I/O PERMISSIONS 
    1746  0A8A                      
    1747  0A8A  A0 7F             CONFIG  LDY #$7F 
    1748  0A8C                            REL RJSR,78    SET INTERNAL TRANSLATION FLAGS 
    1749  0A8C  20               +        .BYTE   RJSR 
    1750  0A8D  4E               +        .BYTE   78 
    1751  0A8E  07               +        .BYTE   *-Q+1 
    1752  0A8F                   +Q       .SET * 
    1753  0A8F  A9 42                     LDA #CNFCOM 
    1754  0A91                            REL RJSR,80    MAKE A SPECIAL DCB AND EXIT 
    1755  0A91  20               +        .BYTE   RJSR 
    1756  0A92  50               +        .BYTE   80 
    1757  0A93  05               +        .BYTE   *-Q+1 
    1758  0A94                   +Q       .SET * 
    1759  0A94  D0 13                     BNE SPXIT2      EXIT, AND RESTORE I/O PERMISSIONS 
    1760  0A96                      
    1761  0A96  A9 41             CONTRL  LDA #CTLCOM 
    1762  0A98                            REL RJSR,80    CREATE A SPECIAL DCB AND EXIT 
    1763  0A98  20               +        .BYTE   RJSR 
    1764  0A99  50               +        .BYTE   80 
    1765  0A9A  07               +        .BYTE   *-Q+1 
    1766  0A9B                   +Q       .SET * 
    1767  0A9B  D0 0C                     BNE SPXIT2      EXIT, AND RESTORE I/O PERMISSIONS 
    1768  0A9D                      
    1769  0A9D  A0 80             TRANSL  LDY #$80 
    1770  0A9F                            REL RJSR,78    SET INTERNAL TRANSLATION FLAGS 
    1771  0A9F  20               +        .BYTE   RJSR ERR LINE  ADDR  B1 B2 B3 B4                      6500 ASSEMBLER VER 1.0MR                     PAGE   20

    1772  0AA0  4E               +        .BYTE   78 
    1773  0AA1  07               +        .BYTE   *-Q+1 
    1774  0AA2                   +Q       .SET * 
    1775  0AA2  A5 2B                     LDA ICAX2Z 
    1776  0AA4                            REL RSTAX,52   SAVE SUPPRESS/FILL CHARACTER 
    1777  0AA4  9D               +        .BYTE   RSTAX 
    1778  0AA5  34               +        .BYTE   52 
    1779  0AA6  05               +        .BYTE   *-Q+1 
    1780  0AA7                   +Q       .SET * 
    1781  0AA7  A0 01             SPCXIT  LDY #SUCCES 
    1782  0AA9  A6 21             SPXIT2  LDX ICDNOZ 
    1783  0AAB                            REL RLDAX,2    FETCH DEVICE PERMISSIONS 
    1784  0AAB  BD               +        .BYTE   RLDAX 
    1785  0AAC  02               +        .BYTE   2 
    1786  0AAD  07               +        .BYTE   *-Q+1 
    1787  0AAE                   +Q       .SET * 
    1788  0AAE  85 2A                     STA ICAX1Z      AND RESTORE AFTER CIO CALL 
    1789  0AB0  C0 00                     CPY #0          RESET ERROR BIT 
    1790  0AB2  60                        RTS 
    1791  0AB3                      
    1792  0AB3                      
    1793  0AB3                      
    1794  0AB3                      
    1795                                  ;RS232 INITIALIZATION CODE 
    1796  0AB3  A9 00             RINWRM  LDA #0          FIND FIRST FREE HANDLER SLOT IN TABLE 
    1797  0AB5  A2 00                     LDX #0 
    1798  0AB7  DD 1A 03          CMPTLP  CMP HATABS,X    TEST FOR EQUIVALENCE 
    1799  0ABA  F0 08                     BEQ CMPFND 
    1800  0ABC  E8                        INX 
    1801  0ABD  E8                        INX 
    1802  0ABE  E8                        INX             PUSH INDEX TO NEXT HANDLER SLOT 
    1803  0ABF  E0 20                     CPX #MAXDEVS-1 
    1804  0AC1  90 F4                     BCC CMPTLP      UNTIL ALL ENTRIES TRIED 
    1805  0AC3  60                        RTS             RETURN QUIETLY IF NO FREE SLOT 
    1806  0AC4  A9 52             CMPFND  LDA #'R 
    1807  0AC6                            REL RSTA,8     INDICATE NO ACTIVE STREAM 
    1808  0AC6  8D               +        .BYTE   RSTA 
    1809  0AC7  08               +        .BYTE   8 
    1810  0AC8  1B               +        .BYTE   *-Q+1 
    1811  0AC9                   +Q       .SET * 
    1812  0AC9  9D 1A 03                  STA HATABS,X    INSERT HANDLER I.D. 
    1813  0ACC  A9 54                     .BYTE $A9,84 
    1814  0ACE  9D 1B 03                  STA HATABS+1,X 
    1815  0AD1  A9 55                     .BYTE $A9,85 
    1816  0AD3  9D 1C 03                  STA HATABS+2,X  INSERT ADDRESS OF HANDLER ENTRIES 
    1817  0AD6                      
    1818  0AD6  18                        CLC 
    1819  0AD7  AD E7 02                  LDA MEMLO 
    1820  0ADA  69 C0                     ADC #.LOW.RHLONG 
    1821  0ADC  8D E7 02                  STA MEMLO 
    1822  0ADF  AD E8 02                  LDA MEMLO+1 
    1823  0AE2  69 06                     ADC #.HIGH.RHLONG 
    1824  0AE4  8D E8 02                  STA MEMLO+1     RESET MEMLO TO ACCOUNT FOR LENGTH OF HANDLER 
    1825  0AE7                      ERR LINE  ADDR  B1 B2 B3 B4                      6500 ASSEMBLER VER 1.0MR                     PAGE   21

    1826                                                  ;CONTROL TRANSFERS HERE ON COLD/WARM START 
    1827  0AE7  A2 04                     LDX #4 
    1828  0AE9  A9 00             RINCLD  LDA #0          X=12, SET BY RELOCATOR ON ENTRY 
    1829  0AEB                    INITLP  REL RSTAX,2 
    1830  0AEB  9D               +        .BYTE   RSTAX 
    1831  0AEC  02               +        .BYTE   2 
    1832  0AED  25               +        .BYTE   *-Q+1 
    1833  0AEE                   +Q       .SET * 
    1834  0AEE  CA                        DEX 
    1835  0AEF  D0 FA                     BNE INITLP      CLEAR ALL HANDLER PERMISSIONS 
    1836  0AF1  E8                        INX             X=1 
    1837  0AF2                            REL RJSR,82    CREATE A STATUS REQUEST FOR R DEVICE 
    1838  0AF2  20               +        .BYTE   RJSR 
    1839  0AF3  52               +        .BYTE   82 
    1840  0AF4  07               +        .BYTE   *-Q+1 
    1841  0AF5                   +Q       .SET * 
    1842  0AF5  18                        CLC             INDICATE BOOT SUCCESS 
    1843  0AF6  A5 08                     LDA WARMST 
    1844  0AF8  D0 01                     BNE WRMXIT 
    1845  0AFA  60                        RTS 
    1846  0AFB  4C FF FF          WRMXIT  JMP $FFFF       DAISY CHAIN THRU DOSINI UNLESS COLD START 
    1847                          ;       *** THIS ADDRESS IS INSERTED BY RELOCATOR 
    1848  0AFE                      
    1849  0AFE                      
    1850                          ;       SUBROUTINE TO MONITOR SYSTEM INTERRUPTS AND CAPTURE BREAK-KEY 
    1851                          ; 
    1852  0AFE  2C 0E D2          RBREAK  BIT IRQST 
    1853  0B01  10 03                     BPL ABREAK      TEST FOR A BREAK-KEY 
    1854  0B03                            REL RJMPI,14 
    1855  0B03  6C               +        .BYTE   RJMPI 
    1856  0B04  0E               +        .BYTE   14 
    1857  0B05  11               +        .BYTE   *-Q+1 
    1858  0B06                   +Q       .SET * 
    1859  0B06                      
    1860  0B06  48                ABREAK  PHA             DO BREAK-KEY PROCESSING 
    1861  0B07  A9 7F                     LDA #$7F 
    1862  0B09  8D 0E D2                  STA IRQEN 
    1863  0B0C  A5 10                     LDA POKMSK 
    1864  0B0E  8D 0E D2                  STA IRQEN       RESET BREAK-KEY INTERRUPT 
    1865  0B11  68                        PLA 
    1866  0B12  40                        RTI             RESTORE ACC. AND RETURN 
    1867  0B13                      
    1868                          ;       SUBROUTINE TO SERVICE INPUT INTERRUPTS 
    1869  0B13  D8                RIN     CLD 
    1870  0B14  8A                        TXA 
    1871  0B15  48                        PHA 
    1872  0B16  98                        TYA 
    1873  0B17  48                        PHA     SAVE REGISTERS ON STACK 
    1874  0B18  A5 2C                     LDA ICSPRZ 
    1875  0B1A  48                        PHA 
    1876  0B1B  A5 2D                     LDA ICSPRZ+1 
    1877  0B1D  48                        PHA     SAVE ZERO PAGE BYTES ON STACK 
    1878  0B1E                            REL RLDA,88 
    1879  0B1E  AD               +        .BYTE   RLDA ERR LINE  ADDR  B1 B2 B3 B4                      6500 ASSEMBLER VER 1.0MR                     PAGE   22

    1880  0B1F  58               +        .BYTE   88 
    1881  0B20  1B               +        .BYTE   *-Q+1 
    1882  0B21                   +Q       .SET * 
    1883  0B21  85 2C                     STA ICSPRZ 
    1884  0B23                            REL RLDA,90 
    1885  0B23  AD               +        .BYTE   RLDA 
    1886  0B24  5A               +        .BYTE   90 
    1887  0B25  05               +        .BYTE   *-Q+1 
    1888  0B26                   +Q       .SET * 
    1889  0B26  85 2D                     STA ICSPRZ+1 
    1890  0B28  AD 0D D2                  LDA SERIN 
    1891  0B2B  A0 00                     LDY #0 
    1892  0B2D  91 2C                     STA (ICSPRZ),Y  USE AS OWN INDIRECT POINTER 
    1893  0B2F  AD 0F D2                  LDA SKSTAT 
    1894  0B32  8D 0A D2                  STA SKRES       FETCH AND RESET SYSTEM ERROR BYTE 
    1895  0B35  49 FF                     EOR #$FF 
    1896  0B37  29 C0                     AND #$C0        INVERT AND MASK XMISSION ERROR BITS 
    1897  0B39                            REL RLDX,8 
    1898  0B39  AE               +        .BYTE   RLDX 
    1899  0B3A  08               +        .BYTE   8 
    1900  0B3B  16               +        .BYTE   *-Q+1 
    1901  0B3C                   +Q       .SET * 
    1902  0B3C                            REL RORAX,6 
    1903  0B3C  1D               +        .BYTE   RORAX 
    1904  0B3D  06               +        .BYTE   6 
    1905  0B3E  03               +        .BYTE   *-Q+1 
    1906  0B3F                   +Q       .SET * 
    1907  0B3F                            REL RSTAX,6    SET LOCAL ERROR BITS 
    1908  0B3F  9D               +        .BYTE   RSTAX 
    1909  0B40  06               +        .BYTE   6 
    1910  0B41  03               +        .BYTE   *-Q+1 
    1911  0B42                   +Q       .SET * 
    1912  0B42  68                        PLA 
    1913  0B43  85 2D                     STA ICSPRZ+1 
    1914  0B45  68                        PLA 
    1915  0B46  85 2C                     STA ICSPRZ      RESTORE BORROWED ZERO PAGE 
    1916  0B48  A2 00                     LDX #0 
    1917  0B4A                            REL RJSR,50    CIRCULAR INCREMENT NEXTIN POINTER 
    1918  0B4A  20               +        .BYTE   RJSR 
    1919  0B4B  32               +        .BYTE   50 
    1920  0B4C  0B               +        .BYTE   *-Q+1 
    1921  0B4D                   +Q       .SET * 
    1922  0B4D  A0 04                     LDY #4 
    1923  0B4F  A2 06                     LDX #6 
    1924  0B51                            REL RJSR,40    COMPARE NEXTIN WITH NXTOUT 
    1925  0B51  20               +        .BYTE   RJSR 
    1926  0B52  28               +        .BYTE   40 
    1927  0B53  07               +        .BYTE   *-Q+1 
    1928  0B54                   +Q       .SET * 
    1929  0B54  D0 12                     BNE INOWRP 
    1930  0B56  A2 02                     LDX #2 
    1931  0B58                            REL RJSR,50    IF WRAPAROUND THEN CIRCULAR INCREMENT NXTOUT 
    1932  0B58  20               +        .BYTE   RJSR 
    1933  0B59  32               +        .BYTE   50 ERR LINE  ADDR  B1 B2 B3 B4                      6500 ASSEMBLER VER 1.0MR                     PAGE   23

    1934  0B5A  07               +        .BYTE   *-Q+1 
    1935  0B5B                   +Q       .SET * 
    1936  0B5B                            REL RLDX,8 
    1937  0B5B  AE               +        .BYTE   RLDX 
    1938  0B5C  08               +        .BYTE   8 
    1939  0B5D  03               +        .BYTE   *-Q+1 
    1940  0B5E                   +Q       .SET * 
    1941  0B5E                            REL RLDAX,6 
    1942  0B5E  BD               +        .BYTE   RLDAX 
    1943  0B5F  06               +        .BYTE   6 
    1944  0B60  03               +        .BYTE   *-Q+1 
    1945  0B61                   +Q       .SET * 
    1946  0B61  09 10                     ORA #$10 
    1947  0B63                            REL RSTAX,6    SET WRAP-AROUND ERROR FLAG 
    1948  0B63  9D               +        .BYTE   RSTAX 
    1949  0B64  06               +        .BYTE   6 
    1950  0B65  05               +        .BYTE   *-Q+1 
    1951  0B66                   +Q       .SET * 
    1952  0B66  D0 05                     BNE RINXIT 
    1953  0B68  A2 04             INOWRP  LDX #4 
    1954  0B6A                            REL RJSR,92    16-BIT INCREMENT OF INSTAT COUNTER 
    1955  0B6A  20               +        .BYTE   RJSR 
    1956  0B6B  5C               +        .BYTE   92 
    1957  0B6C  07               +        .BYTE   *-Q+1 
    1958  0B6D                   +Q       .SET * 
    1959  0B6D                    RINXIT  .EQU * 
    1960                          ; ** FALL THRU TO RESTORE REGISTERS AND EXIT 
    1961  0B6D                      
    1962  0B6D                      
    1963                          ;       SUBROUTINE TO RESTORE REGISTERS AND RETURN FROM INTERRUPT 
    1964                          ; 
    1965  0B6D  68                INTXIT  PLA 
    1966  0B6E  A8                        TAY 
    1967  0B6F  68                        PLA 
    1968  0B70  AA                        TAX 
    1969  0B71  68                        PLA 
    1970  0B72  40                        RTI             RESTORE REGISTERS AND RETURN FROM INTERRUPT 
    1971  0B73                      
    1972                          ;       SUBROUTINE TO SERVICE OUTPUT INTERRUPTS 
    1973  0B73  D8                ROUT    CLD 
    1974  0B74  8A                        TXA 
    1975  0B75  48                        PHA 
    1976  0B76  98                        TYA 
    1977  0B77  48                        PHA             SAVE REGISTERS 
    1978  0B78                            REL RLDX,8 
    1979  0B78  AE               +        .BYTE   RLDX 
    1980  0B79  08               +        .BYTE   8 
    1981  0B7A  0E               +        .BYTE   *-Q+1 
    1982  0B7B                   +Q       .SET * 
    1983  0B7B                            REL RLDAX,4 
    1984  0B7B  BD               +        .BYTE   RLDAX 
    1985  0B7C  04               +        .BYTE   4 
    1986  0B7D  03               +        .BYTE   *-Q+1 
    1987  0B7E                   +Q       .SET * ERR LINE  ADDR  B1 B2 B3 B4                      6500 ASSEMBLER VER 1.0MR                     PAGE   24

    1988  0B7E                            REL RCMPX,70 
    1989  0B7E  DD               +        .BYTE   RCMPX 
    1990  0B7F  46               +        .BYTE   70 
    1991  0B80  03               +        .BYTE   *-Q+1 
    1992  0B81                   +Q       .SET * 
    1993  0B81  D0 0F                     BNE GTBFOK      TEST FOR BUFFER EMPTY 
    1994  0B83                            REL RSTX,12    SET ALL DONE FLAG 
    1995  0B83  8E               +        .BYTE   RSTX 
    1996  0B84  0C               +        .BYTE   12 
    1997  0B85  05               +        .BYTE   *-Q+1 
    1998  0B86                   +Q       .SET * 
    1999  0B86  A5 10                     LDA POKMSK 
    2000  0B88  29 E7                     AND #$E7 
    2001  0B8A  85 10                     STA POKMSK 
    2002  0B8C  8D 0E D2                  STA IRQEN       TURN-OFF ALL OUTPUT INTERRUPTS 
    2003  0B8F  18                        CLC 
    2004  0B90  90 DB                     BCC INTXIT      RESTORE REGISTERS AND EXIT 
    2005  0B92                      
    2006  0B92                    GTBFOK  REL RJSR,34    A=32*(DEVICE#-1) 
    2007  0B92  20               +        .BYTE   RJSR 
    2008  0B93  22               +        .BYTE   34 
    2009  0B94  0F               +        .BYTE   *-Q+1 
    2010  0B95                   +Q       .SET * 
    2011  0B95                            REL RADCX,70 
    2012  0B95  7D               +        .BYTE   RADCX 
    2013  0B96  46               +        .BYTE   70 
    2014  0B97  03               +        .BYTE   *-Q+1 
    2015  0B98                   +Q       .SET * 
    2016  0B98  A8                        TAY             Y=INDEX INTO PROPER BUFFER 
    2017  0B99                            REL RLDAY,36 
    2018  0B99  B9               +        .BYTE   RLDAY 
    2019  0B9A  24               +        .BYTE   36 
    2020  0B9B  04               +        .BYTE   *-Q+1 
    2021  0B9C                   +Q       .SET * 
    2022  0B9C  8D 0D D2                  STA SEROUT      PUT BYTE INTO SERIAL PORT 
    2023  0B9F                            REL RLDYX,70 
    2024  0B9F  BC               +        .BYTE   RLDYX 
    2025  0BA0  46               +        .BYTE   70 
    2026  0BA1  06               +        .BYTE   *-Q+1 
    2027  0BA2                   +Q       .SET * 
    2028  0BA2                            REL RJSR,38    CIRCULAR INCREMENT OF GET POINTER 
    2029  0BA2  20               +        .BYTE   RJSR 
    2030  0BA3  26               +        .BYTE   38 
    2031  0BA4  03               +        .BYTE   *-Q+1 
    2032  0BA5                   +Q       .SET * 
    2033  0BA5                            REL RSTAX,70 
    2034  0BA5  9D               +        .BYTE   RSTAX 
    2035  0BA6  46               +        .BYTE   70 
    2036  0BA7  03               +        .BYTE   *-Q+1 
    2037  0BA8                   +Q       .SET * 
    2038  0BA8                      
    2039  0BA8                            REL RDEC,20    COUNT A BYTE REMOVED FROM BUFFER 
    2040  0BA8  CE               +        .BYTE   RDEC 
    2041  0BA9  14               +        .BYTE   20 ERR LINE  ADDR  B1 B2 B3 B4                      6500 ASSEMBLER VER 1.0MR                     PAGE   25

    2042  0BAA  03               +        .BYTE   *-Q+1 
    2043  0BAB                   +Q       .SET * 
    2044  0BAB  AD 0E D2          ROUTLP  LDA IRQST 
    2045  0BAE  29 08                     AND #8 
    2046  0BB0  F0 F9                     BEQ ROUTLP      WAIT FOR FIRST BIT OF DATA TO SHIFT IN 
    2047  0BB2  D0 B9                     BNE INTXIT 
    2048  0BB4                      
    2049  0BB4                      
    2050  0BB4                      
    2051                          ;       SUBROUTINE TO PREPARE A PUT DCB 
    2052                          ; 
    2053                          ;       GIVEN:  X=DEVICE NUMBER (1-4) 
    2054                          ; 
    2055                          ;       REGISTER USAGE 
    2056                          ;       A=GENERAL AND MATH 
    2057                          ;               SETS UP BUFFER POINTER AND LENGTH FOR PUT DCB 
    2058                          ; 
    2059  0BB4                    PREPUT  REL RJSR,34    A=32*(DEVICE#-1) 
    2060  0BB4  20               +        .BYTE   RJSR 
    2061  0BB5  22               +        .BYTE   34 
    2062  0BB6  0C               +        .BYTE   *-Q+1 
    2063  0BB7                   +Q       .SET * 
    2064  0BB7  69 24                     .BYTE $69,36    ;CARRY CLEAR FROM SHIFT 
    2065  0BB9  8D 04 03                  STA DBUFLO 
    2066  0BBC  A9 00                     LDA #0 
    2067  0BBE  8D 09 03                  STA DBYTHI 
    2068  0BC1  69 25                     .BYTE $69,37 
    2069  0BC3  8D 05 03                  STA DBUFHI      POINTER=PROPER PUT BUFFER 
    2070  0BC6                      
    2071  0BC6                            REL RLDAX,4    A=BUFFER LENGTH 
    2072  0BC6  BD               +        .BYTE   RLDAX 
    2073  0BC7  04               +        .BYTE   4 
    2074  0BC8  12               +        .BYTE   *-Q+1 
    2075  0BC9                   +Q       .SET * 
    2076  0BC9  8D 0A 03                  STA DAUX1 
    2077  0BCC  A9 40                     LDA #64 
    2078  0BCE  8D 08 03                  STA DBYTLO      KLUDGE FOR AN O.S. BUG (MUST SEND AT LEAST 63.5 
    2079  0BD1  60                        RTS 
    2080  0BD2                      
    2081  0BD2                      
    2082  0BD2                      
    2083                          ;       SUBROUTINE TO FIND THE PARITY OF THE ACCUMULATOR 
    2084                          ; 
    2085                          ;       GIVEN:  A=BYTE TO FIND PARITY OF 
    2086                          ; 
    2087                          ;       REGISTER USAGE: 
    2088                          ;               X=USED FOR COUNTING ONES 
    2089                          ; 
    2090                          ;       RESULT RETURNED IN CARRY 
    2091                          ; 
    2092  0BD2  A2 00             PARITY  LDX #0 
    2093  0BD4  4A                CKPTLP  LSR A 
    2094  0BD5  90 01                     BCC ZERBIT      IGNORE, ZERO-BIT 
    2095  0BD7  E8                        INX             COUNT A ONE BIT ERR LINE  ADDR  B1 B2 B3 B4                      6500 ASSEMBLER VER 1.0MR                     PAGE   26

    2096  0BD8  D0 FA             ZERBIT  BNE CKPTLP      TEST FOR ALL DONE (BYTE=0) 
    2097  0BDA  8A                        TXA 
    2098  0BDB  4A                        LSR A           SET CARRY DEPENDENT ON RESULT 
    2099  0BDC  60                        RTS 
    2100  0BDD                      
    2101  0BDD                      
    2102                          ;       SUBROUTINE TO SET INTERNAL TRANSLATION FLAGS 
    2103                          ; 
    2104                          ;       GIVEN:  Y=MASK SHOWING WHICH BITS WILL NOT CHANGE 
    2105                          ;               X=DEVICE NUMBER (1-4), NEW TRANSLATE FLAGS IN ICAX1Z 
    2106                          ; 
    2107                          ;       REGISTER USAGE: 
    2108                          ;               ACCUMULATOR DESTROYED, PROPER FLAGS SET OR RESET 
    2109                          ; 
    2110  0BDD  98                SETRNS  TYA 
    2111  0BDE                            REL RANDX,26 
    2112  0BDE  3D               +        .BYTE   RANDX 
    2113  0BDF  1A               +        .BYTE   26 
    2114  0BE0  18               +        .BYTE   *-Q+1 
    2115  0BE1                   +Q       .SET * 
    2116  0BE1                            REL RSTAX,26 
    2117  0BE1  9D               +        .BYTE   RSTAX 
    2118  0BE2  1A               +        .BYTE   26 
    2119  0BE3  03               +        .BYTE   *-Q+1 
    2120  0BE4                   +Q       .SET * 
    2121  0BE4  98                        TYA 
    2122  0BE5  49 FF                     EOR #$FF        INVERT MASK 
    2123  0BE7  25 2A                     AND ICAX1Z      AND MASK DATA 
    2124  0BE9                            REL RORAX,26 
    2125  0BE9  1D               +        .BYTE   RORAX 
    2126  0BEA  1A               +        .BYTE   26 
    2127  0BEB  08               +        .BYTE   *-Q+1 
    2128  0BEC                   +Q       .SET * 
    2129  0BEC                            REL RSTAX,26 
    2130  0BEC  9D               +        .BYTE   RSTAX 
    2131  0BED  1A               +        .BYTE   26 
    2132  0BEE  03               +        .BYTE   *-Q+1 
    2133  0BEF                   +Q       .SET * 
    2134  0BEF  60                        RTS 
    2135  0BF0                      
    2136                          ;       SUBROUTINE TO MASK THE HI-BIT OF RSCHAR 
    2137                          ; 
    2138                          ;       GIVEN:  RSCHAR 
    2139                          ; 
    2140                          ;       REGISTER USAGE: 
    2141                          ;               A=MASKING 
    2142                          ;               RSCHAR RETURNED MASKED AND IN ACCUMULATOR 
    2143                          ; 
    2144  0BF0                    CLHIBT  REL RLDA,24 
    2145  0BF0  AD               +        .BYTE   RLDA 
    2146  0BF1  18               +        .BYTE   24 
    2147  0BF2  04               +        .BYTE   *-Q+1 
    2148  0BF3                   +Q       .SET * 
    2149  0BF3  29 7F                     AND #$7F ERR LINE  ADDR  B1 B2 B3 B4                      6500 ASSEMBLER VER 1.0MR                     PAGE   27

    2150  0BF5                            REL RSTA,24 
    2151  0BF5  8D               +        .BYTE   RSTA 
    2152  0BF6  18               +        .BYTE   24 
    2153  0BF7  05               +        .BYTE   *-Q+1 
    2154  0BF8                   +Q       .SET * 
    2155  0BF8  60                        RTS 
    2156  0BF9                      
    2157  0BF9                      
    2158  0BF9                      
    2159                          ;       SUBROUTINE TO DO A CIRCULAR ONE BYTE INCREMENT 
    2160                          ; 
    2161                          ;       GIVEN:  Y=BYTE TO BE INCREMENTED, RBFSIZ IS DEFAULT WRAPAROUND 
    2162                          ; 
    2163                          ;       REGISTER USAGE: 
    2164                          ;               A=CIRCULARLY INCREMENTED VALUE 
    2165                          ; 
    2166  0BF9  C8                CIRCIN  INY 
    2167  0BFA  98                        TYA 
    2168  0BFB  C9 20                     CMP #RBFSIZ 
    2169  0BFD  90 02                     BCC CIRXIT 
    2170  0BFF  A9 00                     LDA #0 
    2171  0C01  60                CIRXIT  RTS 
    2172  0C02                      
    2173  0C02                      
    2174                          ;       SUBROUTINE TO FIND INDEX INTO BUFFERS GIVEN WHICH OF FOUR 
    2175                          ; 
    2176                          ;       GIVEN:  X=PORT NUMBER(1-4) 
    2177                          ; 
    2178                          ;       REGISTER USAGE: ACCUMULATOR ONLY 
    2179                          ; 
    2180  0C02  8A                X32M1   TXA 
    2181  0C03  38                        SEC 
    2182  0C04  E9 01                     SBC #1 
    2183  0C06  0A                MULT32  ASL A 
    2184  0C07  0A                MULT16  ASL A 
    2185  0C08  0A                        ASL A 
    2186  0C09  0A                        ASL A 
    2187  0C0A  0A                        ASL A 
    2188  0C0B  60                        RTS 
    2189  0C0C                      
    2190  0C0C                      
    2191                          ;       SUBROUTINE TO DO A 16-BIT INCREMENT 
    2192                          ; 
    2193                          ;       GIVEN:  X=0, INCREMENT NEXTIN 
    2194                          ;                =2, INCREMENT NXTOUT 
    2195                          ;               =4, INCREMENT INSTAT COUNTER 
    2196                          ; 
    2197                          ;       REGISTER USAGE: ACCUMULATOR DESTROYED 
    2198                          ; 
    2199  0C0C                    INC16B  REL RINCX,88 
    2200  0C0C  FE               +        .BYTE   RINCX 
    2201  0C0D  58               +        .BYTE   88 
    2202  0C0E  17               +        .BYTE   *-Q+1 
    2203  0C0F                   +Q       .SET * ERR LINE  ADDR  B1 B2 B3 B4                      6500 ASSEMBLER VER 1.0MR                     PAGE   28

    2204  0C0F  D0 03                     BNE N16XIT 
    2205  0C11                            REL RINCX,90 
    2206  0C11  FE               +        .BYTE   RINCX 
    2207  0C12  5A               +        .BYTE   90 
    2208  0C13  05               +        .BYTE   *-Q+1 
    2209  0C14                   +Q       .SET * 
    2210  0C14  60                N16XIT  RTS 
    2211  0C15                      
    2212                          ;       SUBROUTINE TO DO A 16 BIT COMPARE 
    2213                          ; 
    2214                          ;       GIVEN:  X=COMPARER AND Y=COMPAREE 
    2215                          ;               RETURNS CS IF Y>=X, CC ELSE 
    2216                          ;               0=TOP OF BUFFER 
    2217                          ;               2=BOTTOM OF BUFFER 
    2218                          ;               4=NEXT-IN POINTER 
    2219                          ;               6=NEXT-OUT POINTER 
    2220                          ; 
    2221                          ;       REGISTER USAGE: ACCUMULATOR DESTROYED 
    2222                          ; 
    2223  0C15                    CMP16B  REL RLDAY,66 
    2224  0C15  B9               +        .BYTE   RLDAY 
    2225  0C16  42               +        .BYTE   66 
    2226  0C17  04               +        .BYTE   *-Q+1 
    2227  0C18                   +Q       .SET * 
    2228  0C18                            REL RCMPX,66 
    2229  0C18  DD               +        .BYTE   RCMPX 
    2230  0C19  42               +        .BYTE   66 
    2231  0C1A  03               +        .BYTE   *-Q+1 
    2232  0C1B                   +Q       .SET * 
    2233  0C1B  F0 01                     BEQ CMPMOR      COMPARE THE LO-ORDER BYTES 
    2234  0C1D  60                        RTS 
    2235  0C1E                    CMPMOR  REL RLDAY,62 
    2236  0C1E  B9               +        .BYTE   RLDAY 
    2237  0C1F  3E               +        .BYTE   62 
    2238  0C20  06               +        .BYTE   *-Q+1 
    2239  0C21                   +Q       .SET * 
    2240  0C21                            REL RCMPX,62 
    2241  0C21  DD               +        .BYTE   RCMPX 
    2242  0C22  3E               +        .BYTE   62 
    2243  0C23  03               +        .BYTE   *-Q+1 
    2244  0C24                   +Q       .SET * 
    2245  0C24  60                        RTS 
    2246  0C25                      
    2247  0C25                      
    2248                          ;       SUBROUTINE TO DO A CIRCULAR 16-BIT INCREMENT 
    2249                          ; 
    2250                          ;       GIVEN:  X=INDEX INTO POINTERS 
    2251                          ;                       0=NEXT-IN POINTER 
    2252                          ;                       2=NEXT-OUT POINTER 
    2253                          ; 
    2254                          ;       REGISTER USAGE: 
    2255                          ;               ALL REGISTERS ARE CLOBBERED 
    2256                          ;               INDICATED POINTER IS RETURNED CIRCULARLY INCREMENTED 
    2257  0C25                      ERR LINE  ADDR  B1 B2 B3 B4                      6500 ASSEMBLER VER 1.0MR                     PAGE   29

    2258  0C25                    CIN16B  REL RJSR,92    INCREMENT INDICATED POINTER 
    2259  0C25  20               +        .BYTE   RJSR 
    2260  0C26  5C               +        .BYTE   92 
    2261  0C27  04               +        .BYTE   *-Q+1 
    2262  0C28                   +Q       .SET * 
    2263  0C28  8A                        TXA 
    2264  0C29  18                        CLC 
    2265  0C2A  69 04                     ADC #4 
    2266  0C2C  A8                        TAY             Y=PASSED POINTER+4 
    2267  0C2D  A2 00                     LDX #0 
    2268  0C2F                            REL RJSR,40    TEST FOR TOP-OF-BUFFER < POINTER 
    2269  0C2F  20               +        .BYTE   RJSR 
    2270  0C30  28               +        .BYTE   40 
    2271  0C31  0A               +        .BYTE   *-Q+1 
    2272  0C32                   +Q       .SET * 
    2273  0C32  F0 0E                     BEQ CINXIT      STRICTLY GREATER-THAN FOR CIRCULARITY 
    2274  0C34  90 0C                     BCC CINXIT 
    2275  0C36                    CINTRY  REL RLDA,60    CIRCULAR PART OF THE INCREMENT 
    2276  0C36  AD               +        .BYTE   RLDA 
    2277  0C37  3C               +        .BYTE   60 
    2278  0C38  07               +        .BYTE   *-Q+1 
    2279  0C39                   +Q       .SET * 
    2280  0C39                      
    2281  0C39                            REL RSTAY,62 
    2282  0C39  99               +        .BYTE   RSTAY 
    2283  0C3A  3E               +        .BYTE   62 
    2284  0C3B  03               +        .BYTE   *-Q+1 
    2285  0C3C                   +Q       .SET * 
    2286  0C3C                            REL RLDA,64 
    2287  0C3C  AD               +        .BYTE   RLDA 
    2288  0C3D  40               +        .BYTE   64 
    2289  0C3E  03               +        .BYTE   *-Q+1 
    2290  0C3F                   +Q       .SET * 
    2291  0C3F                            REL RSTAY,66 
    2292  0C3F  99               +        .BYTE   RSTAY 
    2293  0C40  42               +        .BYTE   66 
    2294  0C41  03               +        .BYTE   *-Q+1 
    2295  0C42                   +Q       .SET * 
    2296  0C42  60                CINXIT  RTS 
    2297  0C43                      
    2298                          ;       SUBROUTINE TO TEST DEVICE NUMBER FOR VALIDITY 
    2299                          ; 
    2300                          ;       GIVEN:  DEVICE NUMBER IN ICDNOZ 
    2301                          ; 
    2302                          ;       REGISTER USAGE: 
    2303                          ;               RETURNS IF VALUE IS ACCEPTABLE, EXITS IF NOT 
    2304                          ; 
    2305  0C43  A6 21             RDVTST  LDX ICDNOZ 
    2306  0C45  E0 05                     CPX #5 
    2307  0C47  B0 01                     BCS RSERR1 
    2308  0C49  60                        RTS             RETURN, INDEX IS VALID 
    2309  0C4A  68                RSERR1  PLA 
    2310  0C4B  68                        PLA             PULL CALL FROM STACK 
    2311  0C4C  A0 82                     LDY #NONDEV ERR LINE  ADDR  B1 B2 B3 B4                      6500 ASSEMBLER VER 1.0MR                     PAGE   30

    2312  0C4E  60                        RTS 
    2313  0C4F                      
    2314  0C4F                      
    2315  0C4F                      
    2316  0C4F                      
    2317                          ;       SUBROUTINE TO CREATE A SPECIAL I/O DCB 
    2318                          ; 
    2319                          ;       GIVEN:  A=DCB COMMAND BYTE 
    2320                          ;               X=DEVICE NUMBER 
    2321                          ; 
    2322                          ;       REGISTER USAGE: 
    2323                          ;                Y IS DESTROYED 
    2324                          ; 
    2325  0C4F  A4 2A             SPCDCB  LDY ICAX1Z 
    2326  0C51  8C 0A 03                  STY DAUX1 
    2327  0C54  A4 2B                     LDY ICAX2Z 
    2328  0C56  8C 0B 03                  STY DAUX2       PASS INFO TO DCB 
    2329  0C59  A0 00                     LDY #0 
    2330                          ;FALL THRU TO MAKE A DCB **** 
    2331  0C5B                      
    2332  0C5B                      
    2333                          ;       SUBROUTINE TO MAKE A DCB 
    2334                          ; 
    2335                          ;       GIVEN:  A=DCB COMMAND BYTE 
    2336                          ;               X=UNIT NUMBER (1-4) 
    2337                          ;               Y=DCB STATUS BYTE 
    2338                          ; 
    2339                          ;       REGISTER USAGE: 
    2340                          ;               A=GENERAL PURPOSE (SET-UP CONSTANT DEVICE ADDRESS AND TI
    2341                          ; 
    2342  0C5B  8D 02 03          MAKDCB  STA DCOMND 
    2343  0C5E  8E 01 03                  STX DUNIT 
    2344  0C61  8C 03 03                  STY DSTATS 
    2345  0C64  A0 50                     LDY #RSADRS 
    2346  0C66  8C 00 03                  STY DDEVIC      SET-UP DEVICE ADDRESS 
    2347  0C69  A0 08                     LDY #8 
    2348  0C6B  8C 06 03                  STY DTIMLO      SET-UP A TIME-OUT 
    2349  0C6E  4C 59 E4                  JMP SIOV        PASS CONTROL TO SIO 
    2350  0C71                      
    2351  0C71  5E 31                     .BYTE 94,$31    ;RHOPEN-1 
    2352  0C73  60 02                     .BYTE 96,2      ;RHCLOS-1 
    2353  0C75  62 02                     .BYTE 98,2      ;RHGET-1 
    2354  0C77  64 02                     .BYTE 100,2     ;RHPUT-1 
    2355  0C79  66 02                     .BYTE 102,2     ;RHSTAT-1 
    2356  0C7B  68 02                     .BYTE 104,2     ;RHSPEC-1 
    2357  0C7D  4C 76 03                  .BYTE $4C,118,3 ;JMP RINWRM 
    2358  0C80  00                        .BYTE 0 
    2359  0C81                      
    2360  0C81  6A 03                     .BYTE 106,3     ;FORCE-1 
    2361  0C83  6C 02                     .BYTE 108,2     ;CONTRL-1 
    2362  0C85  6E 02                     .BYTE 110,2     ;CONFIG-1 
    2363  0C87  70 02                     .BYTE 112,2     ;TRANSL-1 
    2364  0C89  72 02                     .BYTE 114,2     ;STREAM-1 
    2365  0C8B                      ERR LINE  ADDR  B1 B2 B3 B4                      6500 ASSEMBLER VER 1.0MR                     PAGE   31

    2366  0C8B                      
    2367  0C8B  56 02                     .BYTE 86,2      ;RIN 
    2368  0C8D  74 02 74 02               .BYTE 116,2,116,2       ;ROUT REPEATED TWICE 
    2369  0C91                    INBASE  .EQU *   INPUT BUFFERS 
    2370  0C91                    INBF1   .RES RBFSIZ 
    2371  0CB1                    INBF2   .RES RBFSIZ 
    2372  0CD1                    INBF3   .RES RBFSIZ 
    2373  0CF1                    INBF4   .RES RBFSIZ 
    2374  0D11                    OUTBAS  .EQU *   OUTPUT BUFFERS 
    2375  0D11                    OUTBF1  .RES RBFSIZ 
    2376  0D31                    OUTBF2  .RES RBFSIZ 
    2377  0D51                    OUTBF3  .RES RBFSIZ 
    2378  0D71                    OUTBF4  .RES RBFSIZ 
    2379  0D91                    GETCTR  .RES 4   COUNTER FOR NUMBER OF ELEMENTS IN INPUT BUFFERS 
    2380  0D95                    PUTCTR  .RES 4   COUNTER FOR ELEMENTS IN OUTPUT BUFFERS 
    2381  0D99                    RERROR  .RES 4   LOCAL PARITY AND INPUT ERROR STORAGE 
    2382                          ;               BIT 7=FRAME ERROR 
    2383                          ;               BIT 6=OVERRUN ERROR 
    2384                          ;               BIT 5=INPUT PARITY ERROR 
    2385                          ;               BIT 4=WRAPAROUND FLAG 
    2386  0D9D                      
    2387  0D9D                    IOCTRL  .RES 4   I/O CONTROL, PERMISSIONS GRANTED A PORT 
    2388                          ;               BIT 7=OPEN/CLOSE 
    2389                          ;               BIT 3=WRITE PERMISSION 
    2390                          ;               BIT 2=READ PERMISSION 
    2391                          ;               BIT 0=STREAM PERMISSION 
    2392  0DA1                      
    2393  0DA1                    RTRANS  .RES 4   LOCAL TRANSLATION AND PARITY REQUESTED FOR PORT 
    2394                          ;               BIT 7=ONE OR TWO STOP BITS 
    2395                          ;               BIT 6=APPEND/NO APPEND LINE FEED 
    2396                          ;               BITS 4,5=TRANSLATION MODE 
    2397                          ;                       BIT5=1 ==>NO TRANSLATE 
    2398                          ;                       BIT4=1 ==>SHORT ASCII TRANSLATION 
    2399                          ;                           =0 ==>LONG ASCII TRANSLATION 
    2400                          ;               BITS 2,3=INPUT PARITY MODE 
    2401                          ;                       0 ==> IGNORE PARITY 
    2402                          ;                       1 ==> ODD CHECK 
    2403                          ;                       2 ==> EVEN CHECK 
    2404                          ;                       3 ==> STRIP PARITY 
    2405                          ;               BITS 0,1=OUTPUT PARITY MODE 
    2406                          ;                       0 ==> SKIP ANY PARITY 
    2407                          ;                       1 ==> ODD PARITY SET 
    2408                          ;                       2 ==> EVEN PARITY SET 
    2409                          ;                       3 ==> ALWAYS SET PARITY BIT 
    2410  0DA5                      
    2411  0DA5                    RSPRCH  .RES 4   USER-DEFINED SUPPRESSION CHARACTER 
    2412  0DA9                    TOBUF   .RES 2   TOP OF BUFFER POINTER 
    2413  0DAB                    BOBUF   .RES 2   BOTTOM OF BUFFER POINTER 
    2414  0DAD                    NEXTIN  .RES 2   NEXT FREE INPUT LOCATION IN BUFFER 
    2415  0DAF                    NXTOUT  .RES 2   ELDEST-USED OUTPUT LOCATION IN BUFFER 
    2416  0DB1                    INSTAT  .RES 2   # OF BYTES IN INPUT STREAM BUFFER (ADDRESS STYLE) 
    2417  0DB3                    OUSTAT  .RES 1   # OF BYTES IN OUTPUT STREAM BUFFER 
    2418  0DB4                    RVSAVE  .RES 6   TEMPORARY FOR SYSTEM VECTORS WHEN TAKEN 
    2419  0DBA                    RMAINV  .RES 2   STORAGE FOR VIMIRQ, MAIN SYTEM IRQ VECTOR ERR LINE  ADDR  B1 B2 B3 B4                      6500 ASSEMBLER VER 1.0MR                     PAGE   32

    2420  0DBC                    ALLDUN  .RES 1   FLAG INDICATING INTERUPT-DRIVEN I/O IS COMPLETE 
    2421  0DBD                    ACTSTR  .RES 1   NUMBER OF DEVICE WHICH IS ACTIVELY STREAMING (BIT6 SET=
    2422  0DBE                    RSCHAR  .RES 1   RS232 XMIT CHARACTER (UNTRANSLATED) 
    2423  0DBF                    DUMMY   .EQU *   END OF BUFFERS POINTER 
    2424  06C0                    RHLONG  .EQU DUMMY-ORIGIN+1  TOTAL LENGTH OF HANDLER (EVEN LENGTH ONLY) 
    2425  0DBF                      
    2426  0DBF                      
    2427  0DBF                            .END 


  ASSEMBLY ERRORS =    0                                                 6500 ASSEMBLER VER 1.0MR                     PAGE   33


                               SYMBOL TABLE

ABREAK    0B06     ACTSTR    0DBD     ADDCOR    030E     ADRESS    0064
AFP       D800     ALLDUN    0DBC     ALLPOT    D208     ANTIC     D400
APPEND    0001     APPMHI    000E     ATACHR    02FB     ATAN      BE43
ATRACT    004D     AUDC1     D201     AUDC2     D203     AUDC3     D205
AUDC4     D207     AUDCTL    D208     AUDF1     D200     AUDF2     D202
AUDF3     D204     AUDF4     D206     BADBUF    0098     BADIOC    0086
BADMOD    0091     BFENHI    0035     BFENLO    0034     BITMSK    006E
BLIM      028A     BLKBDV    E471     BOBUF     0DAB     BOOTAD    0242
BOOT?     0009     BOTSCR    02BF     BPTR      003D     BRKABT    0080
BRKKEY    0011     BUFADR    0015     BUFCNT    006B     BUFRFL    0038
BUFRHI    0033     BUFRLO    0032     BUFSTR    006C     CASBUF    03FD
CASETV    E440     CASFLG    030F     CASINI    0002     CASORG    EF41
CASSBT    004B     CASSET    0043     CAUX1     023C     CAUX2     023D
CBAUDH    02EF     CBAUDL    02EE     CCOMND    023B     CDEVIC    023A
CDTMA1    0226     CDTMA2    0228     CDTMF3    022A     CDTMF4    022C
CDTMF5    022E     CDTMV1    0218     CDTMV2    021A     CDTMV3    021C
CDTMV4    021E     CDTMV5    0220     CH        02FC     CH1       02F2
CHACT     02F3     CHACTL    D401     CHAR      02FA     CHBAS     02F4
CHBASE    D409     CHKERR    008F     CHKSNT    003B     CHKSUM    0031
CHRORG    E000     CIN16B    0C25     CINTRY    0C36     CINXIT    0C42
CIOCHR    002F     CIOINV    E46E     CIOORG    E4A6     CIOV      E456
CIRCIN    0BF9     CIRXIT    0C01     CIX       00F2     CKEY      004A
CKPTLP    0BD4     CLHIBT    0BF0     CLOSE     000C     CLSPUT    0764
CLSTRM    073A     CLSVCT    074E     CMP16B    0C15     CMPFND    0AC4
CMPMOR    0C1E     CMPTLP    0AB7     CNFCMD    0024     CNFCOM    0042
COLAC     0072     COLBK     D01A     COLCRS    0055     COLDST    0244
COLDSV    E477     COLINC    007A     COLOR0    02C4     COLOR1    02C5
COLOR2    02C6     COLOR3    02C7     COLOR4    02C8     COLPF0    D016
COLPF1    D017     COLPF2    D018     COLPF3    D019     COLPM0    D012
COLPM1    D013     COLPM2    D014     COLPM3    D015     COLRSH    004F
CONFIG    0A8A     CONSOL    D01F     CONTRL    0A96     COS       BD73
COUNTR    007E     CR        009B     CRETRY    0036     CRITIC    0042
CRSINH    02F0     CRSROR    008D     CSOPIV    E47D     CSTAT     0288
CTIA      D000     CTLCMD    0022     CTLCOM    0041     DAUX1     030A
DAUX2     030B     DBSECT    0241     DBUFHI    0305     DBUFLO    0304
DBYTHI    0309     DBYTLO    0308     DCB       0300     DCOMND    0302
DDEVIC    0300     DEGFLG    00FB     DEGON     0006     DELETE    0021
DELTAC    0077     DELTAR    0076     DERROR    0090     DFLAGS    0240
DIGRT     00F1     DINDEX    0057     DIRECT    0002     DISK      0044
DISKIV    E450     DISPLY    0053     DLISTH    D403     DLISTL    D402
DMACTL    D400     DMASK     02A0     DNACK     008B     DOSINI    000C
DOSVEC    000A     DOTRNS    08EF     DRAWLN    0011     DRETRY    0037
DRKMSK    004E     DSKFMS    0018     DSKINV    E453     DSKORG    EDEA
DSKTIM    0246     DSKUTL    001A     DSPFLG    02FE     DSTAT     004C
DSTATS    0303     DTIMLO    0306     DUMMY     0DBF     DUNIT     0301
DUNUSE    0307     DVSTAT    02EA     EDITRV    E400     EEXP      00ED
ENDPT     0074     EOFERR    0088     ERRFLG    023F     ESCFLG    02A2
ESIGN     00EF     EXP       DDC0     EXP10     DDCC     FADD      DA66
FASC      D8E6     FCHRFL    00F0     FDIV      DB28     FEOF      003F
FILDAT    02FD     FILFLG    02B7     FILLIN    0012     FLD0P     DD8D
FLD0R     DD89     FLD1P     DD9C     FLD1R     DD98     FLPTR     00FC
FMOVE     DDB6     FMSZPG    0043     FMUL      DADB     FNCNOT    0092
FORCE     0A71     FORMAT    0022     FPI       D9D2     FPREC     0006
FPSCR     05E6     FPSCR1    05EC     FPTR2     00FE     FR0       00D4
FR1       00E0     FR2       00E6     FRCCMD    0020     FRCOPN    0A79
FRE       00DA     FREQ      0040     FRMERR    008C     FRX       00EC
FSCR      05E6     FSCR1     05EC     FST0P     DDAB     FST0R     DDA7
FSUB      DA60     FTYPE     003E     GBFMTY    0878     GETCHR    0007
GETCTR    0D91     GETREC    0005     GETSTR    0874     GLBABS    02E0
GPRIOR    026F     GRACTL    D01D     GRAFM     D011     GRAFP0    D00D
GRAFP1    D00E     GRAFP2    D00F     GRAFP3    D010     GTBFOK    0B92
GTSBOK    08AA     HATABS    031A     HITCLR    D01E     HOLD1     0051
HOLD2     029F     HOLD3     029D     HOLD4     02BC     HOLD5     02BD
HOLDCH    007C     HPOSM0    D004     HPOSM1    D005     HPOSM2    D006
HPOSM3    D007     HPOSP0    D000     HPOSP1    D001     HPOSP2    D002
HPOSP3    D003     HSCROL    D404     ICAX1     034A     ICAX1Z    002A
ICAX2     034B     ICAX2Z    002B     ICBAH     0345     ICBAHZ    0025
ICBAL     0344     ICBALZ    0024     ICBLH     0349     ICBLHZ    0029
ICBLL     0348     ICBLLZ    0028     ICCOM     0342     ICCOMT    0017
ICCOMZ    0022     ICDNO     0341     ICDNOZ    0021     ICHID     0340
ICHIDZ    0020     ICIDNO    002E     ICPTH     0347     ICPTHZ    0027
ICPTL     0346     ICPTLZ    0026     ICSPR     034C     ICSPRZ    002C
ICSTA     0343     ICSTAZ    0023     IFP       D9AA     INBASE    0C91
INBF1     0C91     INBF2     0CB1     INBF3     0CD1     INBF4     0CF1
INBUFF    00F3     INC16B    0C0C     INITLP    0AEB     INOEOL    08FB
INOWRP    0B68     INSCLR    0020     INSDAT    007D     INSTAT    0DB1
INTABS    0200     INTEMP    022D     INTINV    E46B     INTORG    E6D5
INTRNS    08DE     INTRXT    090A     INTXIT    0B6D     INTZBS    0010
INVFLG    02B6     IOCB      0340     IOCBAS    0020     IOCBSZ    0010
IOCFRE    00FF     IOCTRL    0D9D     IRQEN     D20E     IRQST     D20E
KBCODE    D209     KBD       004B     KBDORG    F3E4     KEYBDV    E420
KEYDEL    02F1     LBFEND    05FF     LBPR1     057E     LBPR2     057F
LBUFF     0580     LEDGE     0002     LFNOER    07AB     LINBUF    0247
LINZBS    0000     LMARGN    0052     LOCKFL    0023     LOG       DECD
LOG10     DED1     LOGCOL    0063     LOGMAP    02B2     LPENH     0234
LPENV     0235     M0PF      D000     M0PL      D008     M1PF      D001
M1PL      D009     M2PF      D002     M2PL      D00A     M3PF      D003
M3PL      D00B     MAKDCB    0C5B     MAXDEV    0021     MAXIOC    0080
MEMLO     02E7     MEMORY  M 0000     MEMTOP    02E5     MLTTMP    0066
MODEM     004D     MONORG    F0E3     MTPBUF    075F     MULT16    0C07
MULT32    0C06     MXDMOD    0010     N16XIT    0C14     NARG      0000
NEWCOL    0061     NEWROW    0060     NEXTIN    0DAD     NMIEN     D40E
NMIRES    D40F     NMIST     D40F     NOCKSM    003C     NOINPT    0A68
NONDEV    0082     NOSTAC    009A     NOSTER    0097     NOTE      0026
NOTOPN    0085     NSIGN     00EE     NVALID    0084     NXTOUT    0DAF
ODDOUT    07EE     OKFORC    0A80     OLDADR    005E     OLDCHR    005D
OLDCOL    005B     OLDROW    005A     ONESTP    0852     OPEN      0003
OPNIN     0004     OPNINO    000C     OPNOT     0008     OPNTMP    0066
ORIGIN    0700     OSHRTR    07BD     OTRANS    0795     OUSTAT    0DB3
OUTBAS    0D11     OUTBF1    0D11     OUTBF2    0D31     OUTBF3    0D51
OUTBF4    0D71     OVRRUN    008E     P0PF      D004     P0PL      D00C
P1PF      D005     P1PL      D00D     P2PF      D006     P2PL      D00E
P3PF      D007     P3PL      D00F     PACTL     D302     PADDL0    0270
PADDL1    0271     PADDL2    0272     PADDL3    0273     PADDL4    0274
PADDL5    0275     PADDL6    0276     PADDL7    0277     PARITY    0BD2
PAROT2    07CB     PAROUT    07C8     PBCTL     D303     PBPNT     001D
PBUFSZ    001E     PCOLR0    02C0     PCOLR1    02C1     PCOLR2    02C2
PCOLR3    02C3     PENH      D40C     PENV      D40D     PIA       D300
PINCLR    08DB     PINERR    08CD     PINODD    08D9     PLYARG    05E0
PLYEVL    DD40     PMBASE    D407     POINT     0025     POKEY     D200
POKMSK    0010     PORTA     D300     PORTB     D301     POT0      D200
POT1      D201     POT2      D202     POT3      D203     POT4      D204
POT5      D205     POT6      D206     POT7      D207     POTGO     D20B
POTXIT    07F0     PREPUT    0BB4     PRINTR    0050     PRINTV    E430
PRIOR     D01B     PRNBUF    03C0     PRNORG    EE78     PRTOPN    0096
PRVOPN    0081     PTBFUL    0815     PTDVOK    0778     PTEMP     001F
PTIMOT    001C     PTRIG0    027C     PTRIG1    027D     PTRIG2    027E
PTRIG3    027F     PTRIG4    0280     PTRIG5    0281     PTRIG6    0282
PTRIG7    0283     PUTCHR    000B     PUTCTR    0D95     PUTREC    0009
PUTSTR    0824     Q         0C42     RADCX     007D     RADFLG    00FB
RADON     0000     RAMLO     0004     RAMSIZ    02E4     RAMTOP    006A
RANDOM    D20A     RANDX     003D     RBFSIZ    0020     RBIT      002C
RBLOKV    E47A     RBREAK    0AFE     RCMPX     00DD     RCPX      00EC
RDEC      00CE     RDJOIN    09D0     RDONLY    0087     RDVTST    0C43
READOK    086C     RECVDN    0039     REDGE     0027     REGOTR    07B5
RENAME    0020     RERROR    0D99     RHCLOS    0726     RHGET     085F
RHLONG    06C0     RHOPEN    0700     RHPUT     076E     RHSPEC    0957
RHSTAT    090D     RIN       0B13     RINC      00EE     RINCLD    0AE9
RINCX     00FE     RINWRM    0AB3     RINXIT    0B6D     RJMP      004C
RJMPI     006C     RJSR      0020     RLDA      00AD     RLDAX     00BD
RLDAY     00B9     RLDX      00AE     RLDY      00AC     RLDYX     00BC
RMAINV    0DBA     RMARGN    0053     RNTOPN    070B     ROKOPN    0715
RORAX     001D     ROUT      0B73     ROUTLP    0BAB     ROWAC     0070
ROWCRS    0054     ROWINC    0079     RSADRS    0050     RSBCX     00FD
RSCHAR    0DBE     RSERR1    0C4A     RSPRCH    0DA5     RSTA      008D
RSTAT     0053     RSTAX     009D     RSTAY     0099     RSTX      008E
RSTY      008C     RTCLOK    0012     RTRANS    0DA1     RVSAVE    0DB4
SAVADR    0068     SAVIO     0316     SAVMSC    0058     SCREDT    0045
SCRENV    E410     SCRFLG    02BB     SCRMEM    0093     SDLSTH    0231
SDLSTL    0230     SDMCTL    022F     SENDEV    E468     SERIN     D20D
SEROUT    D20D     SETRNS    0BDD     SETVBV    E45C     SHFAMT    006F
SHFLOK    02BE     SIN       BD81     SIOINV    E465     SIOORG    E944
SIOV      E459     SIZEM     D00C     SIZEP0    D008     SIZEP1    D009
SIZEP2    D00A     SIZEP3    D00B     SKCTL     D20F     SKRES     D20A
SKSTAT    D20F     SOUNDR    0041     SPCDCB    0C4F     SPCXIT    0AA7
SPECIL    000E     SPROUT    07C5     SPXIT2    0AA9     SQR       BEB1
SRTIMR    022B     SSFLAG    02FF     SSKCTL    0232     STACK   S 0000
STACKP    0318     STACTV    0099     STASTR    094A     STATIS    000D
STATUS    0030     STFUNK    0923     STICK0    0278     STICK1    0279
STICK2    027A     STICK3    027B     STIMER    D209     STINLP    09D2
STNORD    09DB     STNOWT    09EC     STOUTP    07E4     STRCMD    0028
STRCOM    0058     STRCTL    0A1C     STREAM    0972     STRIG0    0284
STRIG1    0285     STRIG2    0286     STRIG3    0287     STROK1    0988
STROK2    0982     STROK4    0A0E     STROPN    097A     STRZLN    0A50
STSTLP    094C     STVCTL    0A27     SUBTMP    029E     SUCCES    0001
SUPRIN    0907     SWPFLG    007B     SYSBUF    09B0     SYSVBV    E45F
TABMAP    02A3     TEMP      023E     TEMP1     0312     TEMP2     0314
TEMP3     0315     TIMER1    030C     TIMER2    0310     TIMFLG    0317
TIMOUT    008A     TINDEX    0293     TMPCHR    0050     TMPCOL    02B9
TMPLBT    02A1     TMPROW    02B8     TMPX1     029C     TOBUF     0DA9
TONOLF    07B1     TRAMSZ    0006     TRANSL    0A9D     TRIG0     D010
TRIG1     D011     TRIG2     D012     TRIG3     D013     TRNCMD    0026
TRNRCD    0089     TSTAT     0319     TSTDAT    0007     TWOSTP    0850
TXTCOL    0291     TXTMSC    0294     TXTOLD    0296     TXTROW    0290
UNLOCK    0024     USAREA    0480     VBREAK    0206     VCOUNT    D40B
VCTABL    E480     VDELAY    D01C     VDSLST    0200     VECTBL    E400
VIMIRQ    0216     VINTER    0204     VKEYBD    0208     VPRCED    0202
VSCROL    D405     VSERIN    020A     VSEROC    020E     VSEROR    020C
VTIMR1    0210     VTIMR2    0212     VTIMR4    0214     VVBLKD    0224
VVBLKI    0222     WARMST    0008     WARMSV    E474     WMODE     0289
WRITE     0057     WRITOK    0785     WRMXIT    0AFB     WRONLY    0083
WSYNC     D40A     X32M1     0C02     XIOERR    096F     XITVBV    E462
XMTDON    003A     ZERBIT    0BD8     ZIOCB     0020     ZTEMP1    00F5
ZTEMP3    00F9     ZTEMP4    00F7