                  ATARI CAMAC Assembler Ver  1.0A  Page   1
                                                       D1:R850AMAC.       
                                                    

                    ;
                    ;
                    ;       COLLEEN OPERATING SYSTEM EQUATE FILE
                    ;
                    ;
                    ;
                    ;       MODULE ORIGIN TABLE
                    ;
        = E000      CHRORG  =       $E000   ;CHARACTER SET
        = E400      VECTBL  =       $E400   ;VECTOR TABLE
        = E480      VCTABL  =       $E480   ;RAM VECTOR INITIAL VALUE TABLE
        = E4A6      CIOORG  =       $E4A6   ;CENTRAL I/O HANDLER
        = E6D5      INTORG  =       $E6D5   ;INTERRUPT HANDLER
        = E944      SIOORG  =       $E944   ;SERIAL I/O DRIVER
        = EDEA      DSKORG  =       $EDEA   ;DISK HANDLER
        = EE78      PRNORG  =       $EE78   ;PRINTER HANDLER
        = EF41      CASORG  =       $EF41   ;CASSETTE HANDLER
        = F0E3      MONORG  =       $F0E3   ;MONITOR/POWER UP MODULE
        = F3E4      KBDORG  =       $F3E4   ;KEYBOARD/DISPLAY HANDLER
                    ;
                    ;
                    ;
                    ;
                    ;     VECTOR TABLE
                    ;
                    ;HANDLER ENTRY POINTS ARE CALLED OUT IN THE FOLLOWING VECTOR
                    ;TABLE. THESE ARE THE ADDRESSES MINUS ONE.
                    ;
                    ;
                    ;EXAMPLE FOR EDITOR
                    ;
                    ;    E400       OPEN
                    ;       2       CLOSE
                    ;       4       GET
                    ;       6       PUT
                    ;       8       STATUS
                    ;       A       SPECIAL
                    ;       C       JUMP TO POWER ON INITIALIZATION ROUTINE
                    ;       F       NOT USED
                    ;
                    ;
        = E400      EDITRV  =       $E400   ;EDITOR
        = E410      SCRENV  =       $E410   ;TELEVISION SCREEN
        = E420      KEYBDV  =       $E420   ;KEYBOARD
        = E430      PRINTV  =       $E430   ;PRINTER
        = E440      CASETV  =       $E440   ;CASSETTE
                    ;
                    ;       JUMP VECTOR TABLE
                    ;
                    ;THE FOLLOWING IS A TABLE OF JUMP INSTRUCTIONS
                    ;TO VARIOUS ENTRY POINTS IN THE OPERATING SYSTEM.
                    ;
        = E450      DISKIV  =       $E450   ;DISK INITIALIZATION
        = E453      DSKINV  =       $E453   ;DISK INTERFACE
        = E456      CIOV    =       $E456   ;CENTRAL INPUT OUTPUT ROUTINE
        = E459      SIOV    =       $E459   ;SERIAL INPUT OUTPUT ROUTINE
        = E45C      SETVBV  =       $E45C   ;SET SYSTEM TIMERS ROUTINE
                  ATARI CAMAC Assembler Ver  1.0A  Page   2
                                                       D1:R850AMAC.       
                                                    

        = E45F      SYSVBV  =       $E45F   ;SYSTEM VERTICAL BLANK CALCULATIONS
        = E462      XITVBV  =       $E462   ;EXIT VERTICAL BLANK CALCULATIONS
        = E465      SIOINV  =       $E465   ;SERIAL INPUT OUTPUT INITIALIZATION
        = E468      SENDEV  =       $E468   ;SEND ENABLE ROUTINE
        = E46B      INTINV  =       $E46B   ;INTERRUPT HANDLER INITIALIZATION
        = E46E      CIOINV  =       $E46E   ;CENTRAL INPUT OUTPUT INITIALIZATION
        = E471      BLKBDV  =       $E471   ;BLACKBOARD MODE
        = E474      WARMSV  =       $E474   ;WARM START ENTRY POINT
        = E477      COLDSV  =       $E477   ;COLD START ENTRY POINT
        = E47A      RBLOKV  =       $E47A   ;CASSETTE READ BLOCK ENTRY POINT VECTOR
        = E47D      CSOPIV  =       $E47D   ;CASSETTE OPEN FOR INPUT VECTOR
                    ;VCTABL = $E480
                    ;
                    ;
                    ; OPERATING SYSTEM EQUATES
                    ;
                    ; COMMAND CODES FOR IOCB
        = 0003      OPEN    =       3       ;OPEN FOR INPUT/OUTPUT
        = 0005      GETREC  =       5       ;GET RECORD (TEXT)
        = 0007      GETCHR  =       7       ;GET CHARACTER(S)
        = 0009      PUTREC  =       9       ;PUT RECORD (TEXT)
        = 000B      PUTCHR  =       $B      ;PUT CHARACTER(S)
        = 000C      CLOSE   =       $C      ;CLOSE DEVICE
        = 000D      STATIS  =       $D      ;STATUS REQUEST
        = 000E      SPECIL  =       $E      ;BEGINNING OF SPECIAL ENTRY COMMANDS
                    ;
                    ; SPECIAL ENTRY COMMANDS
        = 0011      DRAWLN  =       $11     ;DRAW LINE
        = 0012      FILLIN  =       $12     ;DRAW LINE WITH RIGHT FILL
        = 0020      RENAME  =       $20     ;RENAME DISK FILE
        = 0021      DELETE  =       $21     ;DELETE DISK FILE
        = 0022      FORMAT  =       $22     ;FORMAT
        = 0023      LOCKFL  =       $23     ;LOCK FILE TO READ ONLY
        = 0024      UNLOCK  =       $24     ;UNLOCK LOCKED FILE
        = 0025      POINT   =       $25     ;POINT SECTOR
        = 0026      NOTE    =       $26     ;NOTE SECTOR
        = 00FF      IOCFRE  =       $FF     ;IOCB "FREE"
                    ;
                    ; AUX1 EQUATES
                    ; () INDICATES WHICH DEVICES USE BIT
        = 0001      APPEND  =       $1      ;OPEN FOR WRITE APPEND (D), OR SCREEN READ (E)
        = 0002      DIRECT  =       $2      ;OPEN FOR DIRECTORY ACCESS (D)
        = 0004      OPNIN   =       $4      ;OPEN FOR INPUT (ALL DEVICES)
        = 0008      OPNOT   =       $8      ;OPEN FOR OUTPUT (ALL DEVICES)
        = 000C      OPNINO  =       OPNIN+OPNOT     ;OPEN FOR INPUT AND OUTPUT (ALL DEVICES)
        = 0010      MXDMOD  =       $10     ;OPEN FOR MIXED MODE (E,S)
        = 0020      INSCLR  =       $20     ;OPEN WITHOUT CLEARING SCREEN (E,S)
                    ;
                    ; DEVICE NAMES
       = 0000      SCREDT  =       'E      ;SCREEN EDITOR (R/W)
       = 0000      KBD     =       'K      ;KEYBOARD (R ONLY)
       = 0000      DISPLY  =       'S      ;SCREEN DISPLY (R/W)
       = 0000      PRINTR  =       'P      ;PRINTER (W ONLY)
       = 0000      CASSET  =       'C      ;CASSETTE
       = 0000      MODEM   =       'M      ;MODEM
                    ;
                  ATARI CAMAC Assembler Ver  1.0A  Page   3
                                                       D1:R850AMAC.       
                                                    

                    ; SYSTEM EOL (CARRIAGE RETURN)
        = 009B      CR      =       $9B
                    ;
                    ;
                    ;       OPERATING SYSTEM STATUS CODES
                    ;
        = 0001      SUCCES  =       $01     ;SUCCESSFUL OPERATION
                    ;
        = 0080      BRKABT  =       $80     ;BREAK KEY ABORT
        = 0081      PRVOPN  =       $81     ;IOCB ALREADY OPEN
        = 0082      NONDEV  =       $82     ;NON-EXISTANT DEVICE
        = 0083      WRONLY  =       $83     ;IOCB OPENED FOR WRITE ONLY
        = 0084      NVALID  =       $84     ;INVALID COMMAND
        = 0085      NOTOPN  =       $85     ;DEVICE OR FILE NOT OPEN
        = 0086      BADIOC  =       $86     ;INVALID IOCB NUMBER
        = 0087      RDONLY  =       $87     ;IOCB OPENED FOR READ ONLY
        = 0088      EOFERR  =       $88     ;END OF FILE
        = 0089      TRNRCD  =       $89     ;TRUNCATED RECORD
        = 008A      TIMOUT  =       $8A     ;PERIPHERAL DEVICE TIME OUT
        = 008B      DNACK   =       $8B     ;DEVICE DOES NOT ACKNOWLEDGE COMMAND
        = 008C      FRMERR  =       $8C     ;SERIAL BUS FRAMING ERROR
        = 008D      CRSROR  =       $8D     ;CURSOR OVERRANGE
        = 008E      OVRRUN  =       $8E     ;SERIAL BUS DATA OVERRUN
        = 008F      CHKERR  =       $8F     ;SERIAL BUS CHECKSUM ERROR
                    ;
        = 0090      DERROR  =       $90     ;PERIPHERAL DEVICE ERROR (OPERATION NOT COMPLETED)
        = 0091      BADMOD  =       $91     ;BAD SCREEN MODE NUMBER
        = 0092      FNCNOT  =       $92     ;FUNCTION NOT IMPLEMENTED IN HANDLER
        = 0093      SCRMEM  =       $93     ;INSUFICIENT MEMORY FOR SCREEN MODE
                    ;
                    ;
                    ;
                    ;
                    ;
                    ;
                    ;       PAGE ZERO RAM ASSIGNMENTS
                    ;
  0000  = 0000                      org     0
  0000  = 0002      LINZBS  ds      2       ;LINBUG  RAM (WILL BE REPLACED BY MONITOR RAM)
                    ;
                    ; THESE LOCATIONS ARE NOT CLEARED
  0002  = 0002      CASINI  ds      2       ;CASSETTE INIT LOCATION
  0004  = 0002      RAMLO   ds      2       ;RAM POINTER FOR MEMORY TEST
  0006  = 0001      TRAMSZ  ds      1       ;TEMPORARY REGISTER FOR RAM SIZE
  0007  = 0001      TSTDAT  ds      1       ;RAM TEST DATA REGISTER
                    ;
                    ; CLEARED ON COLDSTART ONLY
  0008  = 0001      WARMST  ds      1       ;WARM START FLAG
  0009  = 0001      BOOT?   ds      1       ;SUCCESSFUL BOOT FLAG
  000A  = 0002      DOSVEC  ds      2       ;DISK SOFTWARE START VECTOR
  000C  = 0002      DOSINI  ds      2       ;DISK SOFTWARE INIT ADDRESS
  000E  = 0002      APPMHI  ds      2       ;APPLICATIONS MEMORY HI LIMIT
                    ;
                    ; CLEARED ON COLD OR WARM START
        = 0010      INTZBS  =       *       ;INTERRUPT HANDLER
  0010  = 0001      POKMSK  ds      1       ;SYSTEM MASK FOR POKEY IRQ ENABLE
  0011  = 0001      BRKKEY  ds      1       ;BREAK KEY FLAG
                  ATARI CAMAC Assembler Ver  1.0A  Page   4
                                                       D1:R850AMAC.       
                                                    

  0012  = 0003      RTCLOK  ds      3       ;REAL TIME CLOCK (IN 16 MSEC UNITS)
                    ;
  0015  = 0002      BUFADR  ds      2       ;INDIRECT BUFFER ADDRESS REGISTER
                    ;
  0017  = 0001      ICCOMT  ds      1       ;COMMAND FOR VECTOR
                    ;
  0018  = 0002      DSKFMS  ds      2       ;DISK FILE MANAGER POINTER
  001A  = 0002      DSKUTL  ds      2       ;DISK UTILITIES POINTER
                    ;
  001C  = 0001      PTIMOT  ds      1       ;PRINTER TIME OUT REGISTER
  001D  = 0001      PBPNT   ds      1       ;PRINT BUFFER POINTER
  001E  = 0001      PBUFSZ  ds      1       ;PRINT BUFFER SIZE
  001F  = 0001      PTEMP   ds      1       ;TEMPORARY REGISTER
                    ;
        = 0020      ZIOCB   =       *       ;ZERO PAGE I/O CONTROL BLOCK
        = 0010      IOCBSZ  =       16      ; NUMBER OF BYTES PER IOCB
        = 0080      MAXIOC  =       8*IOCBSZ        ;LENGTH OF THE IOCB AREA
        = 0020      IOCBAS  =       *
  0020  = 0001      ICHIDZ  ds      1       ;HANDLER INDEX NUMBER (FF = IOCB FREE)
  0021  = 0001      ICDNOZ  ds      1       ;DEVICE NUMBER (DRIVE NUMBER)
  0022  = 0001      ICCOMZ  ds      1       ;COMMAND CODE
  0023  = 0001      ICSTAZ  ds      1       ;STATUS OF LAST IOCB ACTION
  0024  = 0001      ICBALZ  ds      1       ;BUFFER ADDRESS LOW BYTE
  0025  = 0001      ICBAHZ  ds      1
  0026  = 0001      ICPTLZ  ds      1       ;PUT BYTE ROUTINE ADDRESS - 1
  0027  = 0001      ICPTHZ  ds      1
  0028  = 0001      ICBLLZ  ds      1       ;BUFFER LENGTH LOW BYTE
  0029  = 0001      ICBLHZ  ds      1
  002A  = 0001      ICAX1Z  ds      1       ;AUXILIARY INFORMATION FIRST BYTE
  002B  = 0001      ICAX2Z  ds      1
  002C  = 0004      ICSPRZ  ds      4       ;TWO SPARE BYTES (CIO LOCAL USE)
        = 002E      ICIDNO  =       ICSPRZ+2        ;IOCB NUMBER X 16
        = 002F      CIOCHR  =       ICSPRZ+3        ;CHARACTER BYTE FOR CURRENT OPERATION
                    ;
  0030  = 0001      STATUS  ds      1       ;INTERNAL STATUS STORAGE
  0031  = 0001      CHKSUM  ds      1       ;CHECKSUM (SINGLE BYTE SUM WITH CARRY)
  0032  = 0001      BUFRLO  ds      1       ;POINTER TO DATA BUFFER (LO BYTE)
  0033  = 0001      BUFRHI  ds      1       ;POINTER TO DATA BUFFER (HI BYTE)
  0034  = 0001      BFENLO  ds      1       ;NEXT BYTE PAST END OF THE DATA BUFFER (LO BYTE)
  0035  = 0001      BFENHI  ds      1       ;NEXT BYTE PAST END OF THE DATA BUFFER (HI BYTE)
  0036  = 0001      CRETRY  ds      1       ;NUMBER OF COMMAND FRAME RETRIES
  0037  = 0001      DRETRY  ds      1       ;NUMBER OF DEVICE RETRIES
  0038  = 0001      BUFRFL  ds      1       ;DATA BUFFER FULL FLAG
  0039  = 0001      RECVDN  ds      1       ;RECEIVE DONE FLAG
  003A  = 0001      XMTDON  ds      1       ;TRANSMISSION DONE FLAG
  003B  = 0001      CHKSNT  ds      1       ;CHECKSUM SENT FLAG
  003C  = 0001      NOCKSM  ds      1       ;NO CHECKSUM FOLLOWS DATA FLAG
                    ;
                    ;
  003D  = 0001      BPTR    ds      1
  003E  = 0001      FTYPE   ds      1
  003F  = 0001      FEOF    ds      1
  0040  = 0001      FREQ    ds      1
  0041  = 0001      SOUNDR  ds      1       ;NOISY I/O FLAG.  (ZERO IS QUIET)
  0042  = 0001      CRITIC  ds      1       ;DEFINES CRITICAL SECTION (CRITICAL IF NON-ZERO)
                    ;
  0043  = 0007      FMSZPG  ds      7       ;DISK FILE MANAGER SYSTEM ZERO PAGE
                  ATARI CAMAC Assembler Ver  1.0A  Page   5
                                                       D1:R850AMAC.       
                                                    

                    ;
                    ;
  004A  = 0001      CKEY    ds      1       ;FLAG SET WHEN GAME START PRESSED
  004B  = 0001      CASSBT  ds      1       ;CASSETTE BOOT FLAG
  004C  = 0001      DSTAT   ds      1       ;DISPLAY STATUS
                    ;
  004D  = 0001      ATRACT  ds      1       ;ATRACT FLAG
  004E  = 0001      DRKMSK  ds      1       ;DARK ATRACT MASK
  004F  = 0001      COLRSH  ds      1       ;ATRACT COLOR SHIFTER (EOR'ED WITH PLAYFIELD COLORS)
                    ;
        = 0002      LEDGE   =       2       ;LMARGN'S VALUE AT COLD START
        = 0027      REDGE   =       39      ;RMARGN'S VALUE AT COLD START
  0050  = 0001      TMPCHR  ds      1
  0051  = 0001      HOLD1   ds      1
  0052  = 0001      LMARGN  ds      1       ;LEFT MARGIN (SET TO 1 AT POWER ON)
  0053  = 0001      RMARGN  ds      1       ;RIGHT MARGIN (SET TO 38 AT POWER ON)
  0054  = 0001      ROWCRS  ds      1       ;CURSOR COUNTERS
  0055  = 0002      COLCRS  ds      2
  0057  = 0001      DINDEX  ds      1
  0058  = 0002      SAVMSC  ds      2
  005A  = 0001      OLDROW  ds      1
  005B  = 0002      OLDCOL  ds      2
  005D  = 0001      OLDCHR  ds      1       ;DATA UNDER CURSOR
  005E  = 0002      OLDADR  ds      2
  0060  = 0001      NEWROW  ds      1       ;POINT DRAW GOES TO
  0061  = 0002      NEWCOL  ds      2
  0063  = 0001      LOGCOL  ds      1       ;POINTS AT COLUMN IN LOGICAL LINE
  0064  = 0002      ADRESS  ds      2
  0066  = 0002      MLTTMP  ds      2
        = 0066      OPNTMP  =       MLTTMP  ;FIRST BYTE IS USED IN OPEN AS TEMP
  0068  = 0002      SAVADR  ds      2
  006A  = 0001      RAMTOP  ds      1       ;RAM SIZE DEFINED BY POWER ON LOGIC
  006B  = 0001      BUFCNT  ds      1       ;BUFFER COUNT
  006C  = 0002      BUFSTR  ds      2       ;EDITOR GETCH POINTER
  006E  = 0001      BITMSK  ds      1       ;BIT MASK
  006F  = 0001      SHFAMT  ds      1
  0070  = 0002      ROWAC   ds      2
  0072  = 0002      COLAC   ds      2
  0074  = 0002      ENDPT   ds      2
  0076  = 0001      DELTAR  ds      1
  0077  = 0002      DELTAC  ds      2
  0079  = 0001      ROWINC  ds      1
  007A  = 0001      COLINC  ds      1
  007B  = 0001      SWPFLG  ds      1       ;NON-0 IF TXT AND REGULAR RAM IS SWAPPED
  007C  = 0001      HOLDCH  ds      1       ;CH IS MOVED HERE IN KGETCH BEFORE CNTL & SHIFT PROC
  007D  = 0001      INSDAT  ds      1
  007E  = 0002      COUNTR  ds      2
                    ;
                    ;
                    ;
                    ;
                    ;       80 - FF ARE RESERVED FOR USER APPLICATIONS
                    ;
                    ;
                    ;
                    ;       NOTE : SEE FLOATING POINT SUBROUTINE AREA FOR ZERO PAGE CELLS
                    ;
                  ATARI CAMAC Assembler Ver  1.0A  Page   6
                                                       D1:R850AMAC.       
                                                    

                    ;
                    ;
                    ;
                    ;       PAGE 1   -   STACK
                    ;
                    ;
                    ;
                    ;
                    ;       PAGE TWO RAM ASSIGNMENTS
                    ;
  0080  = 0200              org     $0200
        = 0200      INTABS  =       *       ;INTERRUPT RAM
  0200  = 0002      VDSLST  ds      2       ;DISPLAY LIST NMI VECTOR
  0202  = 0002      VPRCED  ds      2       ;PROCEED LINE IRQ VECTOR
  0204  = 0002      VINTER  ds      2       ;INTERRUPT LINE IRQ VECTOR
  0206  = 0002      VBREAK  ds      2       ;SOFTWARE BREAK (00) INSTRUCTION IRQ VECTOR
  0208  = 0002      VKEYBD  ds      2       ;POKEY KEYBOARD IRQ VECTOR
  020A  = 0002      VSERIN  ds      2       ;POKEY SERIAL INPUT READY IRQ
  020C  = 0002      VSEROR  ds      2       ;POKEY SERIAL OUTPUT READY IRQ
  020E  = 0002      VSEROC  ds      2       ;POKEY SERIAL OUTPUT COMPLETE IRQ
  0210  = 0002      VTIMR1  ds      2       ;POKEY TIMER 1 IRQ
  0212  = 0002      VTIMR2  ds      2       ;POKEY TIMER 2 IRQ
  0214  = 0002      VTIMR4  ds      2       ;POKEY TIMER 4 IRQ
  0216  = 0002      VIMIRQ  ds      2       ;IMMEDIATE IRQ VECTOR
  0218  = 0002      CDTMV1  ds      2       ;COUNT DOWN TIMER 1
  021A  = 0002      CDTMV2  ds      2       ;COUNT DOWN TIMER2
  021C  = 0002      CDTMV3  ds      2       ;COUNT DOWN TIMER 3
  021E  = 0002      CDTMV4  ds      2       ;COUNT DOWN TIMER 4
  0220  = 0002      CDTMV5  ds      2       ;COUNT DOWN TIMER 5
  0222  = 0002      VVBLKI  ds      2       ;IMMEDIATE VERTICAL BLANK NMI VECTOR
  0224  = 0002      VVBLKD  ds      2       ;DEFERRED VERTICAL BLANK NMI VECTOR
  0226  = 0002      CDTMA1  ds      2       ;COUNT DOWN TIMER 1 JSR ADDRESS
  0228  = 0002      CDTMA2  ds      2       ;COUNT DOWN TIMER 2 JSR ADDRESS
  022A  = 0001      CDTMF3  ds      1       ;COUNT DOWN TIMER 3 FLAG
  022B  = 0001      SRTIMR  ds      1       ;SOFTWARE REPEAT TIMER
  022C  = 0001      CDTMF4  ds      1       ;COUNT DOWN TIMER 4 FLAG
  022D  = 0001      INTEMP  ds      1       ;IAN'S TEMP (RENAMED FROM T1 BY POPULAR DEMAND)
  022E  = 0001      CDTMF5  ds      1       ;COUNT DOWN TIMER FLAG 5
  022F  = 0001      SDMCTL  ds      1       ;SAVE DMACTL REGISTER
  0230  = 0001      SDLSTL  ds      1       ;SAVE DISPLAY LIST LOW BYTE
  0231  = 0001      SDLSTH  ds      1       ;SAVE DISPLAY LIST HI BYTE
  0232  = 0001      SSKCTL  ds      1       ;SKCTL REGISTER RAM
  0233  = 0001              ds      1
                    ;
  0234  = 0001      LPENH   ds      1       ;LIGHT PEN HORIZONTAL VALUE
  0235  = 0001      LPENV   ds      1       ;LIGHT PEN VERTICAL VALUE
  0236  = 0002              ds      2       ;SPARE BYTES
                    ;
  0238  = 0002              ds      2       ;SPARE
                    ;
  023A  = 0001      CDEVIC  ds      1       ;COMMAND FRAME BUFFER - DEVICE
  023B  = 0001      CCOMND  ds      1       ;COMMAND
  023C  = 0001      CAUX1   ds      1       ;COMMAND AUX BYTE 1
  023D  = 0001      CAUX2   ds      1       ;COMMAND AUX BYTE 2
                                            ;NOTE: MAY NOT BE THE LAST WORD ON A PAGE
  023E  = 0001      TEMP    ds      1       ;TEMPORARY RAM CELL
                                            ;NOTE: MAY NOT BE THE LAST WORD ON A PAGE
                  ATARI CAMAC Assembler Ver  1.0A  Page   7
                                                       D1:R850AMAC.       
                                                    

  023F  = 0001      ERRFLG  ds      1       ;ERROR FLAG - ANY DEVICE ERROR EXCEPT TIME OUT
                    ;
  0240  = 0001      DFLAGS  ds      1       ;DISK FLAGS FROM SECTOR ONE
  0241  = 0001      DBSECT  ds      1       ;NUMBER OF DISK BOOT SECTORS
  0242  = 0002      BOOTAD  ds      2       ;ADDRESS WHERE DISK BOOT LOADER WILL BE PUT
  0244  = 0001      COLDST  ds      1       ;COLDSTART FLAG (1=IN MIDDLE OF COLDSTART)
                    ;
  0245  = 0001              ds      1       ;SPARE
                    ;
  0246  = 0001      DSKTIM  ds      1       ;DISK TIME OUT REGISTER
                    ;
  0247  = 0028      LINBUF  ds      40      ;CHAR LINE BUFFER
                    ;
  026F  = 0001      GPRIOR  ds      1       ;GLOBAL PRIORITY CELL
                    ;
  0270  = 0001      PADDL0  ds      1       ;POTENTIOMETER 0 RAM CELL
  0271  = 0001      PADDL1  ds      1
  0272  = 0001      PADDL2  ds      1
  0273  = 0001      PADDL3  ds      1
  0274  = 0001      PADDL4  ds      1
  0275  = 0001      PADDL5  ds      1
  0276  = 0001      PADDL6  ds      1
  0277  = 0001      PADDL7  ds      1
  0278  = 0001      STICK0  ds      1       ;JOYSTICK 0 RAM CELL
  0279  = 0001      STICK1  ds      1
  027A  = 0001      STICK2  ds      1
  027B  = 0001      STICK3  ds      1
  027C  = 0001      PTRIG0  ds      1       ;PADDLE TRIGGER 0
  027D  = 0001      PTRIG1  ds      1
  027E  = 0001      PTRIG2  ds      1
  027F  = 0001      PTRIG3  ds      1
  0280  = 0001      PTRIG4  ds      1
  0281  = 0001      PTRIG5  ds      1
  0282  = 0001      PTRIG6  ds      1
  0283  = 0001      PTRIG7  ds      1
  0284  = 0001      STRIG0  ds      1       ;JOYSTICK TRIGGER 0
  0285  = 0001      STRIG1  ds      1
  0286  = 0001      STRIG2  ds      1
  0287  = 0001      STRIG3  ds      1
                    ;
  0288  = 0001      CSTAT   ds      1
  0289  = 0001      WMODE   ds      1
  028A  = 0001      BLIM    ds      1
                    ;
  028B  = 0005              ds      5       ;SPARE
                    ;
                    ;
                    ;
                    ;
  0290  = 0001      TXTROW  ds      1       ;TEXT ROWCRS
  0291  = 0002      TXTCOL  ds      2       ;TEXT COLCRS
  0293  = 0001      TINDEX  ds      1       ;TEXT INDEX
  0294  = 0002      TXTMSC  ds      2       ;FOOLS CONVRT INTO NEW MSC
  0296  = 0006      TXTOLD  ds      6       ;OLDROW & OLDCOL FOR TEXT (AND THEN SOME)
  029C  = 0001      TMPX1   ds      1
  029D  = 0001      HOLD3   ds      1
  029E  = 0001      SUBTMP  ds      1
                  ATARI CAMAC Assembler Ver  1.0A  Page   8
                                                       D1:R850AMAC.       
                                                    

  029F  = 0001      HOLD2   ds      1
  02A0  = 0001      DMASK   ds      1
  02A1  = 0001      TMPLBT  ds      1
  02A2  = 0001      ESCFLG  ds      1       ;ESCAPE FLAG
  02A3  = 000F      TABMAP  ds      15
  02B2  = 0004      LOGMAP  ds      4       ;LOGICAL LINE START BIT MAP
  02B6  = 0001      INVFLG  ds      1       ;INVERSE VIDEO FLAG (TOGGLED BY ATARI KEY)
  02B7  = 0001      FILFLG  ds      1       ;RIGHT FILL FLAG FOR DRAW
  02B8  = 0001      TMPROW  ds      1
  02B9  = 0002      TMPCOL  ds      2
  02BB  = 0001      SCRFLG  ds      1       ;SET IF SCROLL OCCURS
  02BC  = 0001      HOLD4   ds      1       ;TEMP CELL USED IN DRAW ONLY
  02BD  = 0001      HOLD5   ds      1       ;DITTO
  02BE  = 0001      SHFLOK  ds      1
  02BF  = 0001      BOTSCR  ds      1       ;BOTTOM OF SCREEN : 24 NORM  4 SPLIT
                    ;
                    ;
  02C0  = 0001      PCOLR0  ds      1       ;P0 COLOR
  02C1  = 0001      PCOLR1  ds      1       ;P1 COLOR
  02C2  = 0001      PCOLR2  ds      1       ;P2 COLOR
  02C3  = 0001      PCOLR3  ds      1       ;P3 COLOR
  02C4  = 0001      COLOR0  ds      1       ;COLOR 0
  02C5  = 0001      COLOR1  ds      1
  02C6  = 0001      COLOR2  ds      1
  02C7  = 0001      COLOR3  ds      1
  02C8  = 0001      COLOR4  ds      1
                    ;
                    ;
  02C9  = 0017              ds      23      ;SPARE
                    ;
                    ;
                    ;
        = 02E0      GLBABS  =       *       ;GLOBAL VARIABLES
                    ;
  02E0  = 0004              ds      4       ;SPARE
                    ;
  02E4  = 0001      RAMSIZ  ds      1       ;RAM SIZE (HI BYTE ONLY)
  02E5  = 0002      MEMTOP  ds      2       ;TOP OF AVAILABLE USER MEMORY
  02E7  = 0002      MEMLO   ds      2       ;BOTTOM OF AVAILABLE USER MEMORY
  02E9  = 0001              ds      1       ;SPARE
  02EA  = 0004      DVSTAT  ds      4       ;STATUS BUFFER
  02EE  = 0001      CBAUDL  ds      1       ;CASSETTE BAUD RATE LOW BYTE
  02EF  = 0001      CBAUDH  ds      1
                    ;
  02F0  = 0001      CRSINH  ds      1       ;CURSOR INHIBIT (00 = CURSOR ON)
  02F1  = 0001      KEYDEL  ds      1       ;KEY DELAY
  02F2  = 0001      CH1     ds      1
                    ;
  02F3  = 0001      CHACT   ds      1       ;CHACTL REGISTER RAM
  02F4  = 0001      CHBAS   ds      1       ;CHBAS REGISTER RAM
                    ;
  02F5  = 0005              ds      5       ;SPARE BYTES
                    ;
  02FA  = 0001      CHAR    ds      1
  02FB  = 0001      ATACHR  ds      1       ;ATASCII CHARACTER
  02FC  = 0001      CH      ds      1       ;GLOBAL VARIABLE FOR KEYBOARD
  02FD  = 0001      FILDAT  ds      1       ;RIGHT FILL DATA (DRAW)
                  ATARI CAMAC Assembler Ver  1.0A  Page   9
                                                       D1:R850AMAC.       
                                                    

  02FE  = 0001      DSPFLG  ds      1       ;DISPLAY FLAG : DISPLAY CNTLS IF NON-ZERO
  02FF  = 0001      SSFLAG  ds      1       ;START/STOP FLAG FOR PAGING (CNTL 1). CLEARED BY BREAK
                    ;
                    ;
                    ;
                    ;
                    ;
                    ;
                    ;
                    ;       PAGE THREE RAM ASSIGNMENTS
                    ;
        = 0300      DCB     =       *       ;DEVICE CONTROL BLOCK
  0300  = 0001      DDEVIC  ds      1       ;PERIPHERAL UNIT 1 BUS I.D. NUMBER
  0301  = 0001      DUNIT   ds      1       ;UNIT NUMBER
  0302  = 0001      DCOMND  ds      1       ;BUS COMMAND
  0303  = 0001      DSTATS  ds      1       ;COMMAND TYPE/STATUS RETURN
  0304  = 0001      DBUFLO  ds      1       ;DATA BUFFER POINTER LOW BYTE
  0305  = 0001      DBUFHI  ds      1
  0306  = 0001      DTIMLO  ds      1       ;DEVICE TIME OUT IN 1 SECOND UNITS
  0307  = 0001      DUNUSE  ds      1       ;UNUSED BYTE
  0308  = 0001      DBYTLO  ds      1       ;NUMBER OF BYTES TO BE TRANSFERRED LOW BYTE
  0309  = 0001      DBYTHI  ds      1
  030A  = 0001      DAUX1   ds      1       ;COMMAND AUXILIARY BYTE 1
  030B  = 0001      DAUX2   ds      1
                    ;
  030C  = 0002      TIMER1  ds      2       ;INITIAL TIMER VALUE
  030E  = 0001      ADDCOR  ds      1       ;ADDITION CORRECTION
  030F  = 0001      CASFLG  ds      1       ;CASSETTE MODE WHEN SET
  0310  = 0002      TIMER2  ds      2       ;FINAL TIMER VALUE. THESE TWO TIMER VALUES
                    ;       ;       ;       ;       ;       ;ARE USED TO COMPUTE INTERVAL FOR BAUD RATE
  0312  = 0002      TEMP1   ds      2       ;TEMPORARY STORAGE REGISTER
  0314  = 0001      TEMP2   ds      1       ;TEMPORARY STORAGE REGISTER
  0315  = 0001      TEMP3   ds      1       ;TEMPORARY STORAGE REGISTER
  0316  = 0001      SAVIO   ds      1       ;SAVE SERIAL IN DATA PORT
  0317  = 0001      TIMFLG  ds      1       ;TIME OUT FLAG FOR BAUD RATE CORRECTION
  0318  = 0001      STACKP  ds      1       ;SIO STACK POINTER SAVE CELL
  0319  = 0001      TSTAT   ds      1       ;TEMPORARY STATUS HOLDER
                    ;
                    ;
                    ;
  031A  = 0026      HATABS  ds      38      ;HANDLER ADDRESS TABLE
        = 0021      MAXDEV  =       *-HATABS-5      ;MAXIMUM HANDLER ADDRESS INDEX
                    ;
                    ; NOTE : THE ENTIRE IOCB DEFINITIONS HAVE BEEN MODIFIED
                    ;
        = 0340      IOCB    =       *       ;I/O CONTROL BLOCKS
  0340  = 0001      ICHID   ds      1       ;HANDLER INDEX NUMBER (FF = IOCB FREE)
  0341  = 0001      ICDNO   ds      1       ;DEVICE NUMBER (DRIVE NUMBER)
  0342  = 0001      ICCOM   ds      1       ;COMMAND CODE
  0343  = 0001      ICSTA   ds      1       ;STATUS OF LAST IOCB ACTION
  0344  = 0001      ICBAL   ds      1       ;BUFFER ADDRESS LOW BYTE
  0345  = 0001      ICBAH   ds      1
  0346  = 0001      ICPTL   ds      1       ;PUT BYTE ROUTINE ADDRESS - 1
  0347  = 0001      ICPTH   ds      1
  0348  = 0001      ICBLL   ds      1       ;BUFFER LENGTH LOW BYTE
  0349  = 0001      ICBLH   ds      1
  034A  = 0001      ICAX1   ds      1       ;AUXILIARY INFORMATION FIRST BYTE
                  ATARI CAMAC Assembler Ver  1.0A  Page  10
                                                       D1:R850AMAC.       
                                                    

  034B  = 0001      ICAX2   ds      1
  034C  = 0004      ICSPR   ds      4       ;FOUR SPARE BYTES
  0350  = 0070              ds      MAXIOC-IOCBSZ
                    ;
  03C0  = 0028      PRNBUF  ds      40      ;PRINTER BUFFER
                    ;
  03E8  = 0015              ds      21      ;SPARE BYTES
                    ;
                    ;
                    ;
                    ;
                    ;
                    ;
                    ;
                    ;       ;       ; PAGE FOUR RAM ASSIGNMENTS
                    ;
  03FD  = 0083      CASBUF  ds      131     ;CASSETTE BUFFER
                    ;
                    ; USER AREA STARTS HERE AND GOES TO END OF PAGE FIVE
  0480  = 0080      USAREA  ds      128     ;SPARE
                    ;
                    ;
                    ;
                    ;
                    ;
                    ;
                    ;
                    ; PAGE FIVE RAM ASSIGNMENTS
                    ;
                    ; PAGE FIVE IS RESERVED AS A USER WORK SPACE
                    ;
                    ; NOTE: SEE FLOATING POINT SUBROUTINE AREA FOR PAGE FIVE CELLS
                    ;
                    ;
                    ; PAGE SIX RAM ASSIGNMENTS
                    ;
                    ; PAGE SIX IS RESERVED AS A USER'S USER WORK SPACE
                    ;
                    ;
                    ;
                    ;
                    ; FLOATING POINT SUBROUTINES
                    ;
        = 0006      FPREC   =       6       ;FLOATING PT PRECISION (# OF BYTES)
                                            ; IF CARRY USED THEN CARRY CLEAR => NO ERROR, CARR
        = D800      AFP     =       $D800   ;ASCII->FLOATING POINT (FP)
                                            ; INBUFF+CIX -> FR0, CIX, CARRY
        = D8E6      FASC    =       $D8E6   ;FP -> ASCII    ;FR0-> LBUFF  (INBUFF)
        = D9AA      IFP     =       $D9AA   ;INTEGER -> FP
                                            ; 0-$FFFF (LSB,MSB) IN FR0,FR0+1->FR0
        = D9D2      FPI     =       $D9D2   ;FP -> INTEGER  ; FR0 -> FR0,FR0+1, CARRY
        = DA60      FSUB    =       $DA60   ;FR0 <- FR0 - FR1  ,CARRY
        = DA66      FADD    =       $DA66   ;FR0 <- FR0 + FR1  ,CARRY
        = DADB      FMUL    =       $DADB   ;FR0 <- FR0 * FR1  ,CARRY
        = DB28      FDIV    =       $DB28   ;FR0 <- FR0 / FR1  ,CARRY
        = DD89      FLD0R   =       $DD89   ;FLOATING LOAD REG0     ; FR0 <- (X,Y)
        = DD8D      FLD0P   =       $DD8D   ; "       "      "      ; FR0 <- (FLPTR)
                  ATARI CAMAC Assembler Ver  1.0A  Page  11
                                                       D1:R850AMAC.       
                                                    

        = DD98      FLD1R   =       $DD98   ; "       "    REG1     ; FR1 <- (X,Y)
        = DD9C      FLD1P   =       $DD9C   ; "       "      "      ; FR1 <- (FLPTR)
        = DDA7      FST0R   =       $DDA7   ;FLOATING STORE REG0 (X,Y) <- FR0
        = DDAB      FST0P   =       $DDAB   ; "       "      "      ;(FLPTR)<- FR0
        = DDB6      FMOVE   =       $DDB6   ;FR1 <- FR0
        = DD40      PLYEVL  =       $DD40   ;FR0 <- P(Z) = SUM(I=N TO 0) (A(I)*Z**I)        ;  CAR
                    ; INPUT: (X,Y) = A(N),A(N-1)...A(0)  -> PLYARG
                    ;  ACC  =       # OF COEFFICIENTS = DEGREE+1
                    ;  FR0  =       Z
        = DDC0      EXP     =       $DDC0   ;FR0 <- E**FR0 = EXP10(FR0 * LOG10(E))  CARRY
        = DDCC      EXP10   =       $DDCC   ;FR0 <- 10**FR0  CARRY
        = DECD      LOG     =       $DECD   ;FR0 <- LN(FR0) = LOG10(FR0)/LOG10(E)   ;CARRY
        = DED1      LOG10   =       $DED1   ;FR0 <- LOG10 (FR0)      CARRY
                    ; THE FOLLOWING ARE IN BASIC CARTRIDGE:
        = BD81      SIN     =       $BD81   ;FR0 <- SIN(FR0)  DEGFLG=0 =>RADS,  6=>DEG.     ;CA
        = BD73      COS     =       $BD73   ;FR0 <- COS(FR0)        CARRY
        = BE43      ATAN    =       $BE43   ;FR0 <- ATAN(FR0)       CARRY
        = BEB1      SQR     =       $BEB1   ;FR0 <- SQUAREROOT(FR0) CARRY
                    ;FLOATING POINT ROUTINES ZERO PAGE (NEEDED ONLY IF F.P. ROUTINES ARE CALLED)
  0500  = 00D4              org     $D4
  00D4  = 0006      FR0     ds      FPREC   ;FP REG0
  00DA  = 0006      FRE     ds      FPREC
  00E0  = 0006      FR1     ds      FPREC   ;FP REG1
  00E6  = 0006      FR2     ds      FPREC
  00EC  = 0001      FRX     ds      1       ;FP SPARE
  00ED  = 0001      EEXP    ds      1       ;VALUE OF E
  00EE  = 0001      NSIGN   ds      1       ;SIGN OF #
  00EF  = 0001      ESIGN   ds      1       ;SIGN OF EXPONENT
  00F0  = 0001      FCHRFLG ds      1       ;1ST CHAR FLAG
  00F1  = 0001      DIGRT   ds      1       ;# OF DIGITS RIGHT OF DECIMAL
  00F2  = 0001      CIX     ds      1       ;CURRENT INPUT INDEX
  00F3  = 0002      INBUFF  ds      2       ;POINTS TO USER'S LINE INPUT BUFFER
  00F5  = 0002      ZTEMP1  ds      2
  00F7  = 0002      ZTEMP4  ds      2
  00F9  = 0002      ZTEMP3  ds      2
  00FB              DEGFLG
  00FB  = 0001      RADFLG  ds      1       ;0=RADIANS, 6=DEGREES
        = 0000      RADON   =       0       ;INDICATES RADIANS
        = 0006      DEGON   =       6       ;INDICATES DEGREES
  00FC  = 0002      FLPTR   ds      2       ;POINTS TO USER'S FLOATING PT NUMBER
  00FE  = 0002      FPTR2   ds      2
                    ;FLOATING PT ROUTINES' NON-ZERO PAGE RAM (NEEDED ONLY IF F.P. ROUTINES CALLED)
  0100  = 057E              org     $57E
  057E  = 0001      LBPR1   ds      1       ;LBUFF PREFIX 1
  057F  = 0001      LBPR2   ds      1       ;LBUFF PREFIX 2
  0580  = 0080      LBUFF   ds      128     ;LINE BUFFER
        = 05E0      PLYARG  =       LBUFF+$60       ;POLYNOMIAL ARGUMENTS
        = 05E6      FPSCR   =       PLYARG+FPREC
        = 05EC      FPSCR1  =       FPSCR+FPREC
        = 05E6      FSCR    =       FPSCR
        = 05EC      FSCR1   =       FPSCR1
        = 05FF      LBFEND  =       *-1     ;END OF LBUFF
                    ;
                    ;
                    ;
                    ;
                    ;
                  ATARI CAMAC Assembler Ver  1.0A  Page  12
                                                       D1:R850AMAC.       
                                                    

                    ;
                    ;
                    ;
                    ;
                    ;       ;       ; COLLEEN MNEMONICS
                    ;
        = D200      POKEY   =       $D200   ;VBLANK ACTION: DESCRIPTION:
        = D200      POT0    =       POKEY+0 ;POT0-->PADDL0  0-227 IN RAM CELL
        = D201      POT1    =       POKEY+1 ;POT1-->PADDL1  0-227 IN RAM CELL
        = D202      POT2    =       POKEY+2 ;POT2-->PADDL2  0-227 IN RAM CELL
        = D203      POT3    =       POKEY+3 ;POT3-->PADDL3  0-227 IN RAM CELL
        = D204      POT4    =       POKEY+4 ;POT4-->PADDL4  0-227 IN RAM CELL
        = D205      POT5    =       POKEY+5 ;POT5-->PADDL5  0-227 IN RAM CELL
        = D206      POT6    =       POKEY+6 ;POT6-->PADDL6  0-227 IN RAM CELL
        = D207      POT7    =       POKEY+7 ;POT7-->PADDL7  0-227 IN RAM CELL
        = D208      ALLPOT  =       POKEY+8 ;???
        = D209      KBCODE  =       POKEY+9
        = D20A      RANDOM  =       POKEY+10
        = D20B      POTGO   =       POKEY+11        ;STROBED
        = D20D      SERIN   =       POKEY+13
        = D20E      IRQST   =       POKEY+14
        = D20F      SKSTAT  =       POKEY+15
        = D200      AUDF1   =       POKEY+0
        = D201      AUDC1   =       POKEY+1
        = D202      AUDF2   =       POKEY+2
        = D203      AUDC2   =       POKEY+3
        = D204      AUDF3   =       POKEY+4
        = D205      AUDC3   =       POKEY+5
        = D206      AUDF4   =       POKEY+6
        = D207      AUDC4   =       POKEY+7
        = D208      AUDCTL  =       POKEY+8 ;NONE   AUDCTL<--[SIO]
        = D209      STIMER  =       POKEY+9
        = D20A      SKRES   =       POKEY+10        ;NONE   SKRES<--[SIO]
        = D20D      SEROUT  =       POKEY+13        ;NONE   SEROUT<--[SIO]
        = D20E      IRQEN   =       POKEY+14        ;       POKMSK-->IRQEN  (AFFECTED BY OPEN S: OR E:)
        = D20F      SKCTL   =       POKEY+15        ;       SSKCTL-->SKCTL  SSKCTL<--[SIO]
                    ;
        = D000      CTIA    =       $D000   ;VBLANK ACTION: DESCRIPTION:
        = D000      HPOSP0  =       CTIA+0
        = D001      HPOSP1  =       CTIA+1
        = D002      HPOSP2  =       CTIA+2
        = D003      HPOSP3  =       CTIA+3
        = D004      HPOSM0  =       CTIA+4
        = D005      HPOSM1  =       CTIA+5
        = D006      HPOSM2  =       CTIA+6
        = D007      HPOSM3  =       CTIA+7
        = D008      SIZEP0  =       CTIA+8
        = D009      SIZEP1  =       CTIA+9
        = D00A      SIZEP2  =       CTIA+10
        = D00B      SIZEP3  =       CTIA+11
        = D00C      SIZEM   =       CTIA+12
        = D00D      GRAFP0  =       CTIA+13
        = D00E      GRAFP1  =       CTIA+14
        = D00F      GRAFP2  =       CTIA+15
        = D010      GRAFP3  =       CTIA+16
        = D011      GRAFM   =       CTIA+17
        = D012      COLPM0  =       CTIA+18 ;PCOLR0-->COLPM0        WITH ATTRACT MODE
                  ATARI CAMAC Assembler Ver  1.0A  Page  13
                                                       D1:R850AMAC.       
                                                    

        = D013      COLPM1  =       CTIA+19 ;PCOLR1-->COLPM1        WITH ATTRACT MODE
        = D014      COLPM2  =       CTIA+20 ;PCOLR2-->COLPM2        WITH ATTRACT MODE
        = D015      COLPM3  =       CTIA+21 ;PCOLR3-->COLPM3        WITH ATTRACT MODE
        = D016      COLPF0  =       CTIA+22 ;COLOR0-->COLPF0        WITH ATTRACT MODE
        = D017      COLPF1  =       CTIA+23 ;COLOR1-->COLPF1        WITH ATTRACT MODE
        = D018      COLPF2  =       CTIA+24 ;COLOR2-->COLPF2        WITH ATTRACT MODE
        = D019      COLPF3  =       CTIA+25 ;COLOR3-->COLPF3        WITH ATTRACT MODE
        = D01A      COLBK   =       CTIA+26 ;COLOR4-->COLBK         WITH ATTRACT MODE
        = D01B      PRIOR   =       CTIA+27 ;(ON OPEN S: OR E:)     GPRIOR-->PRIOR
        = D01C      VDELAY  =       CTIA+28
        = D01D      GRACTL  =       CTIA+29
        = D01E      HITCLR  =       CTIA+30
        = D01F      CONSOL  =       CTIA+31 ;$08-->CONSOL           TURN OFF SPEAKER
        = D000      M0PF    =       CTIA+0
        = D001      M1PF    =       CTIA+1
        = D002      M2PF    =       CTIA+2
        = D003      M3PF    =       CTIA+3
        = D004      P0PF    =       CTIA+4
        = D005      P1PF    =       CTIA+5
        = D006      P2PF    =       CTIA+6
        = D007      P3PF    =       CTIA+7
        = D008      M0PL    =       CTIA+8
        = D009      M1PL    =       CTIA+9
        = D00A      M2PL    =       CTIA+10
        = D00B      M3PL    =       CTIA+11
        = D00C      P0PL    =       CTIA+12
        = D00D      P1PL    =       CTIA+13
        = D00E      P2PL    =       CTIA+14
        = D00F      P3PL    =       CTIA+15
        = D010      TRIG0   =       CTIA+16 ;TRIG0-->STRIG0
        = D011      TRIG1   =       CTIA+17 ;TRIG1-->STRIG1
        = D012      TRIG2   =       CTIA+18 ;TRIG2-->STRIG2
        = D013      TRIG3   =       CTIA+19 ;TRIG3-->STRIG3
                    ;
        = D400      ANTIC   =       $D400   ;VBLANK ACTION   DESCRIPTION
        = D400      DMACTL  =       ANTIC+0 ;DMACTL<--SDMCTL        ON OPEN S: OR E:
        = D401      CHACTL  =       ANTIC+1 ;CHACTL<--CHACT         ON OPEN S: OR E:
        = D402      DLISTL  =       ANTIC+2 ;DLISTL<--SDLSTL        ON OPEN S: OR E:
        = D403      DLISTH  =       ANTIC+3 ;DLISTH<--SDLSTH        ON OPEN S: OR E:
        = D404      HSCROL  =       ANTIC+4
        = D405      VSCROL  =       ANTIC+5
        = D407      PMBASE  =       ANTIC+7
        = D409      CHBASE  =       ANTIC+9 ;CHBASE<--CHBAS         ON OPEN S: OR E:
        = D40A      WSYNC   =       ANTIC+10
        = D40B      VCOUNT  =       ANTIC+11
        = D40C      PENH    =       ANTIC+12
        = D40D      PENV    =       ANTIC+13
        = D40E      NMIEN   =       ANTIC+14        ;NMIEN<--40     POWER ON AND [SETVBV]
        = D40F      NMIRES  =       ANTIC+15        ;STROBED
        = D40F      NMIST   =       ANTIC+15
        = D300      PIA     =       $D300   ;  VBLANK ACTION          DESCRIPTION
        = D300      PORTA   =       PIA+0   ; PORTA-->STICK0,1      X-Y CONTROLLERS
        = D301      PORTB   =       PIA+1   ; PORTB-->STICK2,3      X-Y CONTROLLERS
        = D302      PACTL   =       PIA+2   ;NONE                   PACTL<--3C [INIT]
        = D303      PBCTL   =       PIA+3   ;NONE                   PBCTL<--3C [INIT]
                    ;
                    ;
                  ATARI CAMAC Assembler Ver  1.0A  Page  14
                                                       D1:R850AMAC.       
                                                    

                    ;
                    ;
                    ;
                    ;       ;  VECTOR TABLE
                    ;
                    ;HANDLER ENTRY POINTS ARE CALLED OUT IN THE FOLLOWING VECTOR
                    ;TABLE. THESE ARE THE ADDRESSES MINUS ONE.
                    ;
                    ;RS-232 HANDLER (RELOCATING VERSION !!)
                    ;
                    ;RS-232 HANDLER CODE (COLLEEN RESIDENT)
                    ;
                    ;
        = 0700      ORIGIN  =       $700    ; PROGRAM ORIGIN FOR ASSEMBLER
        = 0020      RBFSIZ  =       32
        = 0053      RSTAT   =       'S'     ;DCB STATUS COMMAND
        = 0057      WRITE   =       'W'     ;DCB WRITE COMMAND
        = 0041      CTLCOM  =       'A'     ;DCB CONTROL COMMAND
        = 0058      STRCOM  =       'X'     ;DCB STREAM COMMAND
        = 0042      CNFCOM  =       'B'     ;DCB CONFIGURE COMMAND
        = 0028      STRCMD  =       $28     ;IOCB STREAM COMMAND
        = 0026      TRNCMD  =       $26     ;IOCB TRANSLATE COMMAND
        = 0024      CNFCMD  =       $24     ;IOCB CONFIGURE COMMAND
        = 0022      CTLCMD  =       $22     ;IOCB CONTROL COMMAND
        = 0020      FRCCMD  =       $20     ;IOCB FORCE BLOCK COMMAND
        = 0050      RSADRS  =       $50     ;RS-232 DEVICE ADDRESS
        = 0096      PRTOPN  =       150     ;PORT ALREADY OPEN ERROR
        = 0097      NOSTER  =       151     ;PORT NOT OPEN FOR STREAM ERROR
        = 0098      BADBUF  =       152     ;BAD USER-SUPPLIED BUFFERS
        = 0099      STACTV  =       153     ;ANOTHER STREAM IS ALREADY ACTIVE
        = 009A      NOSTAC  =       154     ;NO STREAM IS ACTIVE (THUS, NO INPUT ALLOWED)
                    
                            LIST    I
                    
                    
                    ;       INCLUDE D:R850DEF
                    
  0600  = 0700              ORG     ORIGIN  ;DEVELOPMENT ORIGIN
                    
  0700  20430C      RHOPEN  JSR     RDVTST  ;TEST FOR VALID DEVICE NUMBER
                    
  0703  BD9C0D              LDA     IOCTRL-1,X
  0706  1003 ^070B          BPL     RNTOPN  ;TEST FOR PORT ALREADY OPEN
  0708  A096                LDY     #PRTOPN ;ERROR, PORT ALREADY OPENED
  070A  60                  RTS
                    
  070B  A52A        RNTOPN  LDA     ICAX1Z
  070D  A8                  TAY
  070E  290C                AND     #12
  0710  D003 ^0715          BNE     ROKOPN
  0712  A084                LDY     #132    ;ERROR, NO PERMISSIONS GRANTED ON OPEN
  0714  60                  RTS
  0715  98          ROKOPN  TYA
  0716  0980                ORA     #$80
  0718  9D9C0D              STA     IOCTRL-1,X      ;SET-UP PERMISSION BYTE
  071B  A900                LDA     #0
  071D  9D940D              STA     PUTCTR-1,X      ;INITIALIZE PUT-COUNTER
                  ATARI CAMAC Assembler Ver  1.0A  Page  15
                                                       D1:R850AMAC.       
                                                    

  0720  9D980D              STA     RERROR-1,X      ;CLEAR ERROR FLAGS
  0723  A001                LDY     #SUCCES
  0725  60                  RTS
                    
  0726  20430C      RHCLOS  JSR     RDVTST  ;TEST DEVICE NUMBER FOR VALIDITY
                    
  0729  ECBD0D              CPX     ACTSTR
  072C  F00C ^073A          BEQ     CLSTRM  ;TEST FOR ACTIVE STREAM, BRANCH IF SO
                    
  072E  BD940D              LDA     PUTCTR-1,X
  0731  F02C ^075F          BEQ     MTPBUF  ;TEST FOR BUFFER EMPTY, BRANCH IF SO
                    
  0733  20B40B              JSR     PREPUT  ;PREPARE TO DO A PUT-BLOCK
  0736  A080                LDY     #$80
  0738  D02A ^0764          BNE     CLSPUT  ;JOIN AND SEND DCB (BRANCH IS A JUMP)
                    
  073A  ADBC0D      CLSTRM  LDA     ALLDUN
  073D  F0FB ^073A          BEQ     CLSTRM  ;WAIT FOR BUFFER TO DRAIN
  073F  78                  SEI
  0740  ADBA0D              LDA     RMAINV
  0743  8D1602              STA     VIMIRQ
  0746  ADBB0D              LDA     RMAINV+1
  0749  8D1702              STA     VIMIRQ+1        ;RESTORE MAIN SYSTEM IRQ VECTOR
  074C  A205                LDX     #5
  074E  BDB40D      CLSVCT  LDA     RVSAVE,X
  0751  9D0A02              STA     VSERIN,X
  0754  CA                  DEX
  0755  10F7 ^074E          BPL     CLSVCT  ;RETURN SYSTEM INTERRUPT VECTORS
  0757  58                  CLI
  0758  ADBD0D              LDA     ACTSTR
  075B  8EBD0D              STX     ACTSTR  ;INDICATE NO ACTIVE STREAM
  075E  AA                  TAX             ;X=DEVICE STREAMING
                    ;*** FALL THRU TO REST OF EMPTY PUT BUFFER PROCESSING
                    
  075F  A000        MTPBUF  LDY     #0
  0761  8C0A03              STY     DAUX1   ;INDICATE NO DATA (FOR CONTROLLER)
  0764  A900        CLSPUT  LDA     #0
  0766  9D9C0D              STA     IOCTRL-1,X      ;CLEAR DEVICE PERMISSIONS AND ETC.
  0769  A957                LDA     #WRITE
  076B  4C5B0C              JMP     MAKDCB  ;CREATE A WRITE DCB AND EXIT
                    
                    
  076E  BC4103      RHPUT   LDY     ICDNO,X ;FETCH DEVICE NUMBER FROM ORIGINATING IOCB
  0771  C005                CPY     #5
  0773  9003 ^0778          BCC     PTDVOK  ;TEST DEVICE NUMBER FOR VALIDITY
  0775  A082                LDY     #NONDEV
  0777  60                  RTS             ;RETURN ERROR IF INVALID
                    
  0778  8DBE0D      PTDVOK  STA     RSCHAR  ;SAVE UNTRANSLATED CHARACTER
  077B  B99C0D              LDA     IOCTRL-1,Y
  077E  2908                AND     #8      ;TEST FOR WRITE PERMISSION
  0780  D003 ^0785          BNE     WRITOK
  0782  A087                LDY     #RDONLY
  0784  60                  RTS             ;RETURN, ERROR DEVICE READ-ONLY
                    
  0785  98          WRITOK  TYA
  0786  AA                  TAX             ;X=DEVICE NUMBER
                  ATARI CAMAC Assembler Ver  1.0A  Page  16
                                                       D1:R850AMAC.       
                                                    

  0787  8621                STX     ICDNOZ  ;COPY INTO ZERO PAGE (DAMN BASIC ANYWAY!)
                    
                    ; OUTPUT TRANSLATION 0=LONG,1=SHORT, ELSE NOT TRANSLATED
                    
  0789  BDA00D              LDA     RTRANS-1,X
  078C  2930                AND     #$30
  078E  A8                  TAY             ;MASK-OFF AND SAVE OUTPUT PARITY MODE
  078F  F004 ^0795          BEQ     OTRANS  ;0 ==> TRANSLATION (LONG TO BE EXACT)
  0791  C920                CMP     #$20
  0793  B036 ^07CB          BCS     PAROT2  ;NO TRANSLATION, GO DIRECTLY TO OUTPUT PARITY
  0795  ADBE0D      OTRANS  LDA     RSCHAR
  0798  C99B                CMP     #$9B    ;TEST FOR <EOL>
  079A  D019 ^07B5          BNE     REGOTR
  079C  BDA00D              LDA     RTRANS-1,X
  079F  2940                AND     #$40
  07A1  F00E ^07B1          BEQ     TONOLF  ;TEST FOR REQUEST TO APPEND <LF>
  07A3  A90D                LDA     #$D     ;APPEND <LF> CASE ...
  07A5  20C807              JSR     PAROUT  ;FAKE A SUBR. CALL TO NORMAL EXIT ... TRICKY,UGLY
  07A8  1001 ^07AB          BPL     LFNOER
  07AA  60                  RTS             ;RETURN IMMEDIATLY IF SIO ERROR
  07AB  A621        LFNOER  LDX     ICDNOZ  ;RESTORE DEVICE NUMBER
  07AD  A90A                LDA     #$A     ;APPEND <LF>
  07AF  D017 ^07C8          BNE     PAROUT
  07B1  A90D        TONOLF  LDA     #$D
  07B3  D013 ^07C8          BNE     PAROUT  ;JUST <EOL> TO <CR> TRANSLATION PLEASE ...
  07B5  C010        REGOTR  CPY     #$10    ;REGULAR TRANSLATION, TEST FOR SHORT OR LONG
  07B7  F004 ^07BD          BEQ     OSHRTR  ;1 ==> SHORT TRANSLATE MODE
  07B9  297F                AND     #$7F    ;FOLD TABLE OVER
  07BB  100B ^07C8          BPL     PAROUT
  07BD  C920        OSHRTR  CMP     #$20
  07BF  9004 ^07C5          BCC     SPROUT  ;IF CHAR<' ' THEN SUPPRESS
  07C1  C97D                CMP     #$7D
  07C3  9003 ^07C8          BCC     PAROUT  ;ACCEPT IF CHAR< <SCREEN CLEAR>
  07C5  A001        SPROUT  LDY     #SUCCES ;RETURN SUCCESS IF CHARACTER SUPPRESSED
  07C7  60                  RTS
                    
                    ; OUTPUT PARITY
                    
  07C8  8DBE0D      PAROUT  STA     RSCHAR  ;SAVE TRANSLATED CHARACTER
  07CB  BDA00D      PAROT2  LDA     RTRANS-1,X
  07CE  2903                AND     #$3
  07D0  F01E ^07F0          BEQ     POTXIT  ;0=SKIP, IGNORE PARITY BIT
  07D2  C903                CMP     #3
  07D4  F00E ^07E4          BEQ     STOUTP  ;3=SET-PARITY REQUESTED
  07D6  A8                  TAY             ;SAVE PARITY-REQUEST FLAG
  07D7  20F00B              JSR     CLHIBT  ;MASK ANY HI-BIT PRESENT
  07DA  20D20B              JSR     PARITY  ;FIND ORIGINAL PARITY
  07DD  98                  TYA
  07DE  2902                AND     #2      ;2=EVEN PARITY, ODD ELSE
  07E0  F00C ^07EE          BEQ     ODDOUT
  07E2  900C ^07F0          BCC     POTXIT
  07E4  ADBE0D      STOUTP  LDA     RSCHAR
  07E7  0980                ORA     #$80    ;SET PARITY BIT
  07E9  8DBE0D              STA     RSCHAR
  07EC  3002 ^07F0          BMI     POTXIT  ;JUMP/BRANCH
  07EE  90F4 ^07E4  ODDOUT  BCC     STOUTP
  07F0  A621        POTXIT  LDX     ICDNOZ  ;PARITY COMPLETE, RESTORE DEVICE NUMBER
                  ATARI CAMAC Assembler Ver  1.0A  Page  17
                                                       D1:R850AMAC.       
                                                    

  07F2  ECBD0D              CPX     ACTSTR
  07F5  F02D ^0824          BEQ     PUTSTR  ;TEST FOR DEVICE ACTIVELY STREAMING
                    
  07F7  20020C              JSR     X32M1   ;A=32*(DEVICE#-1)
  07FA  7D940D              ADC     PUTCTR-1,X
  07FD  A8                  TAY                     ;Y=INDEX INTO PROPER PUT BUFFER
  07FE  ADBE0D              LDA     RSCHAR
  0801  99110D              STA     OUTBAS,Y        ;PUT DATA-BYTE INTO BUFFER
  0804  FE940D              INC     PUTCTR-1,X
                    
  0807  C90D                CMP     #$D
  0809  F00A ^0815          BEQ     PTBFUL          ;IF <CR> THEN DUMP THE BUFFER
                    
  080B  A920                LDA     #RBFSIZ
  080D  DD940D              CMP     PUTCTR-1,X      ;INCREMENT BUFFER COUNTER AND CHECK BUFFER FULL
  0810  F003 ^0815          BEQ     PTBFUL
  0812  A001                LDY     #SUCCES
  0814  60                  RTS                     ;... EXIT IF BUFFER NOT FULL
                    ;       **** SPECIAL ENTRY POINT FOR FORCE ****
  0815  20B40B      PTBFUL  JSR     PREPUT
  0818  A080                LDY     #$80            ;Y=DCB STATUS BYTE
  081A  A900                LDA     #0
  081C  9D940D              STA     PUTCTR-1,X      ;CLEAR PUT-COUNTER
  081F  A957                LDA     #WRITE
  0821  4C5B0C              JMP     MAKDCB  ;EXIT THRU SIO WITH A WRITE DCB
                    
  0824  ADB30D      PUTSTR  LDA     OUSTAT
  0827  C91F                CMP     #RBFSIZ-1
  0829  B0F9 ^0824          BCS     PUTSTR          ;TEST FOR PUT-BUFFER FULL, WAIT IF SO ...
  082B  20020C              JSR     X32M1   ;A=32*(ACTIVE STREAM-1)
  082E  78                  SEI
  082F  7D940D              ADC     PUTCTR-1,X
  0832  A8                  TAY                     ;Y=POINTER INTO PROPER PUT-BUFFER
  0833  ADBE0D              LDA     RSCHAR          ;FETCH TRANSLATED CHARACTER
  0836  99110D              STA     OUTBAS,Y        ;PLACE CHARACTER IN BUFFER
  0839  BC940D              LDY     PUTCTR-1,X
  083C  20F90B              JSR     CIRCIN          ;CIRCULAR INCREMENT
  083F  9D940D              STA     PUTCTR-1,X
  0842  EEB30D              INC     OUSTAT          ;COUNT A BYTE IN THE BUFFER
  0845  A510                LDA     POKMSK
  0847  BCA00D              LDY     RTRANS-1,X
  084A  3004 ^0850          BMI     TWOSTP          ;TEST FOR ONE OR TWO STOP BIT MODE
  084C  0918                ORA     #$18    ;ONE-STOP BIT CASE
  084E  D002 ^0852          BNE     ONESTP
  0850  0908        TWOSTP  ORA     #$8     ;TWO-STOP BIT CASE
  0852  8510        ONESTP  STA     POKMSK
  0854  8D0ED2              STA     IRQEN
  0857  A000                LDY     #0
  0859  8CBC0D              STY     ALLDUN  ;SET ALL-DONE FLAG TO FALSE
  085C  58                  CLI
  085D  C8                  INY
  085E  60                  RTS             ;RETURN SUCCESS
                    
                    
  085F  20430C      RHGET   JSR     RDVTST  ;TEST DEVICE NUMBER FOR VALIDITY
                    
  0862  BD9C0D              LDA     IOCTRL-1,X
                  ATARI CAMAC Assembler Ver  1.0A  Page  18
                                                       D1:R850AMAC.       
                                                    

  0865  2904                AND     #4
  0867  D003 ^086C          BNE     READOK  ;TEST FOR READ PERMISSION
  0869  A083                LDY     #WRONLY
  086B  60                  RTS             ;RETURN ERROR STATUS
                    
  086C  ECBD0D      READOK  CPX     ACTSTR
  086F  F003 ^0874          BEQ     GETSTR  ;TEST FOR STREAM ACTIVE, BRANCH IF SO
  0871  A09A                LDY     #NOSTAC ;ELSE, ERROR NO INPUT ALLOWED
  0873  60                  RTS
                    
  0874  A004        GETSTR  LDY     #4
  0876  A206                LDX     #6
  0878  58          GBFMTY  CLI             ;CLEAR INTERRUPTS TO ALLOW ESCAPE
  0879  78                  SEI             ;INHIBIT INTERRUPTS TO PREVENT CONFUSION
  087A  20150C              JSR     CMP16B  ;COMPARE NEXTIN AND NXTOUT POINTERS
  087D  F0F9 ^0878          BEQ     GBFMTY  ;WAIT LOOP (INTERUPTS INHIBITED ON EXIT)
  087F  A52C                LDA     ICSPRZ
  0881  48                  PHA
  0882  A52D                LDA     ICSPRZ+1
  0884  48                  PHA                     ;SAVE ZERO PAGE BYTES ON STACK
  0885  ADAF0D              LDA     NXTOUT
  0888  852C                STA     ICSPRZ
  088A  ADB00D              LDA     NXTOUT+1
  088D  852D                STA     ICSPRZ+1        ;SET-UP AN INDIRECT POINTER
  088F  A000                LDY     #0
  0891  B12C                LDA     (ICSPRZ),Y      ;FETCH NEXT-OUT DATA BYTE
  0893  8DBE0D              STA     RSCHAR          ;SAVE UNTRANSLATED CHARACTER
  0896  68                  PLA
  0897  852D                STA     ICSPRZ+1
  0899  68                  PLA
  089A  852C                STA     ICSPRZ  ;RETURN BORROWED ZERO PAGE
  089C  38                  SEC
  089D  ADB10D              LDA     INSTAT
  08A0  E901                SBC     #1
  08A2  8DB10D              STA     INSTAT
  08A5  B003 ^08AA          BCS     GTSBOK
  08A7  CEB20D              DEC     INSTAT+1
  08AA  A202        GTSBOK  LDX     #2
  08AC  20250C              JSR     CIN16B  ;16-BIT CIRCULAR INCREMENT OF NXTOUT POINTER
  08AF  58                  CLI
  08B0  A621                LDX     ICDNOZ  ;RESTORE THE X-REGISTER
                    
                    
                    ; INPUT PARITY CHECKING
                    
  08B2  BDA00D              LDA     RTRANS-1,X
  08B5  4A                  LSR     A
  08B6  4A                  LSR     A
  08B7  2903                AND     #3      ;ISOLATE INPUT PARITY FLAGS
  08B9  F023 ^08DE          BEQ     INTRNS  ;0=SKIP, IGNORE PARITY
  08BB  C903                CMP     #3
  08BD  F01C ^08DB          BEQ     PINCLR  ;3=CLEAR PARITY BIT, IGNORE PARITY
  08BF  A8                  TAY
  08C0  ADBE0D              LDA     RSCHAR
  08C3  20D20B              JSR     PARITY  ;DERIVE PARITY
  08C6  98                  TYA
  08C7  2902                AND     #2
                  ATARI CAMAC Assembler Ver  1.0A  Page  19
                                                       D1:R850AMAC.       
                                                    

  08C9  F00E ^08D9          BEQ     PINODD  ;2=EVEN PARITY CHECKING, ODD CHECKING ELSE
  08CB  900E ^08DB          BCC     PINCLR
  08CD  A621        PINERR  LDX     ICDNOZ  ;RESTORE DEVICE NUMBER
  08CF  A920                LDA     #$20
  08D1  1D980D              ORA     RERROR-1,X      ;SET PARITY ERROR BIT
  08D4  9D980D              STA     RERROR-1,X
  08D7  D002 ^08DB          BNE     PINCLR          ;JUMP/BRANCH TO EXIT
  08D9  90F2 ^08CD  PINODD  BCC     PINERR
  08DB  20F00B      PINCLR  JSR     CLHIBT  ;CLEAR ANY PARITY BIT
                    ;
                    ; INPUT TRANSLATION
                    ;
  08DE  A621        INTRNS  LDX     ICDNOZ          ;RESTORE DEVICE NUMBER
  08E0  BDA00D              LDA     RTRANS-1,X
  08E3  2930                AND     #$30            ;STRIP ALL BUT TRANSLATE MODE
  08E5  C920                CMP     #$20
  08E7  9006 ^08EF          BCC     DOTRNS
  08E9  ADBE0D              LDA     RSCHAR  ;NO TRANSLATION IS DESIRED
  08EC  A001                LDY     #SUCCES
  08EE  60                  RTS             ;RETURN SUCCESS
                    
  08EF  A8          DOTRNS  TAY
  08F0  20F00B              JSR     CLHIBT  ;MASK PARITY BIT (ASCII IS A 7-BIT CODE)
  08F3  C90D                CMP     #$D
  08F5  D004 ^08FB          BNE     INOEOL  ;TEST FOR <CR> ==> <EOL> TRANSLATION
  08F7  A99B                LDA     #$9B
  08F9  D00F ^090A          BNE     INTRXT  ;EXIT, TRANSLATION COMPLETE
  08FB  C000        INOEOL  CPY     #0
  08FD  F00B ^090A          BEQ     INTRXT  ;LONG TRANSLATION DESIRED
  08FF  C920                CMP     #$20
  0901  9004 ^0907          BCC     SUPRIN  ;TEST FOR VALUE UNACCEPTABLY LOW
  0903  C97D                CMP     #$7D
  0905  9003 ^090A          BCC     INTRXT  ;TEST FOR VALUE UNACCEPTABLY HIGH (JOIN IF NOT)
  0907  BDA40D      SUPRIN  LDA     RSPRCH-1,X      ;FIND INPUT SUPPRESSION TRANSLATE CHAR
                    
  090A  A001        INTRXT  LDY     #SUCCES         ;EXIT, SUCCESS
  090C  60                  RTS
                    
  090D  20430C      RHSTAT  JSR     RDVTST          ;TEST DEVICE# FOR VALIDITY
                    
  0910  BD980D              LDA     RERROR-1,X
  0913  8DEA02              STA     DVSTAT          ;FETCH AND STORE DEVICE STATUS
  0916  8DBE0D              STA     RSCHAR          ;SAVE FOR BLOCK MODE STATUS
  0919  A900                LDA     #0
  091B  9D980D              STA     RERROR-1,X      ;RESET DEVICE ERROR STATUS BYTE
  091E  ECBD0D              CPX     ACTSTR
  0921  F027 ^094A          BEQ     STASTR          ;TEST FOR ACTIVE STREAM
                    ;       **** FUNKY ENTRY POINT FOR INIT.TIME STATUS REQUEST
  0923  A9EA        STFUNK  LDA     #LOW DVSTAT
  0925  8D0403              STA     DBUFLO
  0928  A902                LDA     #HIGH DVSTAT
  092A  8D0503              STA     DBUFHI          ;SET-UP DCB BUFFER POINTER
  092D  A902                LDA     #2
  092F  8D0803              STA     DBYTLO
  0932  A900                LDA     #0
  0934  8D0903              STA     DBYTHI          ;SET-UP DCB BUFFER LENGTH
  0937  A040                LDY     #$40
                  ATARI CAMAC Assembler Ver  1.0A  Page  20
                                                       D1:R850AMAC.       
                                                    

  0939  A953                LDA     #RSTAT
  093B  205B0C              JSR     MAKDCB  ;CREATE SIO CALL
  093E  ADBE0D              LDA     RSCHAR
  0941  0DEA02              ORA     DVSTAT  ;INSERT PARITY ERROR BIT
  0944  8DEA02              STA     DVSTAT
  0947  C000                CPY     #0      ;RESET I/O SUCCESS/FAILURE FLAG
  0949  60                  RTS
                    
  094A  A003        STASTR  LDY     #3
  094C  B9B00D      STSTLP  LDA     INSTAT-1,Y
  094F  99EA02              STA     DVSTAT,Y
  0952  88                  DEY
  0953  D0F7 ^094C          BNE     STSTLP  ;COPY OVER STATUS BYTES FOR USER
  0955  C8                  INY
  0956  60                  RTS             ;RETURN SUCCESS
                    
  0957  20430C      RHSPEC  JSR     RDVTST  ;TEST DEVICE NUMBER FOR VALIDITY
  095A  A522                LDA     ICCOMZ
  095C  290F                AND     #$F
  095E  C909                CMP     #9      ;TEST FOR LO-NIBBLE > MAX VALID
  0960  B00D ^096F          BCS     XIOERR
  0962  A8                  TAY             ;Y=INDEX (ASSUMED VALID)
  0963  4A                  LSR     A
  0964  B009 ^096F          BCS     XIOERR          ;ERROR IF INDEX IS ODD
  0966  B9820C              LDA     JMPTBL+1,Y
  0969  48                  PHA
  096A  B9810C              LDA     JMPTBL,Y
  096D  48                  PHA                     ;INDIRECT JUMP TO PROPER ENTRY POINT
  096E  60                  RTS
                    
  096F  A084        XIOERR  LDY     #NVALID
  0971  60                  RTS                     ;ERROR, COMMAND IS INVALID
                    
                    
  0972  BD9C0D      STREAM  LDA     IOCTRL-1,X
  0975  3003 ^097A          BMI     STROPN          ;TEST FOR PORT OPEN
  0977  A085                LDY     #NOTOPN
  0979  60                  RTS                     ;RETURN ERROR IF NOT
  097A  2CBD0D      STROPN  BIT     ACTSTR
  097D  7003 ^0982          BVS     STROK2  ;TEST FOR ANOTHER STREAM ALREADY ACTIVE (BIT6=0)
  097F  A099                LDY     #STACTV
  0981  60                  RTS             ;RETURN ERROR IF SO
  0982  4A          STROK2  LSR     A
  0983  B003 ^0988          BCS     STROK1
  0985  A097                LDY     #NOSTER ;RETURN ERROR IF PORT NOT OPEN FOR STREAM
  0987  60                  RTS
  0988  4A          STROK1  LSR     A
  0989  4A                  LSR     A
  098A  904F ^09DB          BCC     STNORD  ;TEST FOR DEVICE OPEN FOR READ
                    
  098C  A52A                LDA     ICAX1Z
  098E  F020 ^09B0          BEQ     SYSBUF  ;AUX1=0 ==> USE SYSTEM BUFFERS
                    
  0990  A528                LDA     ICBLLZ
  0992  0529                ORA     ICBLHZ
  0994  F01A ^09B0          BEQ     SYSBUF  ;TEST FOR SYSTEM BUFFER USAGE(LENGTH=0)
                    
                  ATARI CAMAC Assembler Ver  1.0A  Page  21
                                                       D1:R850AMAC.       
                                                    

  0996  18                  CLC
  0997  A524                LDA     ICBALZ
  0999  8DAB0D              STA     BOBUF
  099C  6528                ADC     ICBLLZ
  099E  8DA90D              STA     TOBUF   ;COMPUTE LO-BYTE OF BUFFER POINTER
  09A1  A525                LDA     ICBAHZ
  09A3  8DAC0D              STA     BOBUF+1
  09A6  6529                ADC     ICBLHZ
  09A8  8DAA0D              STA     TOBUF+1 ;COMPUTE HI-BYTE OF BUFFER POINTER
  09AB  9023 ^09D0          BCC     RDJOIN
  09AD  A098                LDY     #BADBUF ;IF OVERFLOW THEN ERROR
  09AF  60                  RTS
                    
  09B0  20020C      SYSBUF  JSR     X32M1           ;PREPARE TO OPEN A SYSTEM BUFFER INPUT STREAM
  09B3  6991                ADC     #LOW INBASE
  09B5  8DAB0D              STA     BOBUF
  09B8  A90C                LDA     #HIGH INBASE
  09BA  6900                ADC     #0
  09BC  8DAC0D              STA     BOBUF+1         ;SET BOTTOM-OF-BUFFER TO POINT TO SYSTEM
  09BF  18                  CLC
  09C0  ADAB0D              LDA     BOBUF
  09C3  691F                ADC     #RBFSIZ-1
  09C5  8DA90D              STA     TOBUF
  09C8  ADAC0D              LDA     BOBUF+1
  09CB  6900                ADC     #0
  09CD  8DAA0D              STA     TOBUF+1 ;COMPUTE TOP-OF-BUFFER POINTER IN SYSTEM BUFFER
                    
  09D0  A006        RDJOIN  LDY     #6
  09D2  20360C      STINLP  JSR     CINTRY  ;SET POINTERS TO BOTTOM-OF-BUFFER
  09D5  88                  DEY
  09D6  88                  DEY             ;SET-UP INPUT AND OUTPUT POINTERS
  09D7  C002                CPY     #2
  09D9  D0F7 ^09D2          BNE     STINLP
                    
  09DB  A621        STNORD  LDX     ICDNOZ
  09DD  BD9C0D              LDA     IOCTRL-1,X
  09E0  2908                AND     #$8             ;EST FOR WRITE PERMISSION
  09E2  F008 ^09EC          BEQ     STNOWT
  09E4  A900                LDA     #0
  09E6  9D940D              STA     PUTCTR-1,X
  09E9  9D900D              STA     GETCTR-1,X      ;INITIALIZE OUTPUT-STREAM PUT AND GET POINTERS
                    
  09EC  8D0903      STNOWT  STA     DBYTHI
  09EF  A9B4                LDA     #LOW RVSAVE
  09F1  8D0403              STA     DBUFLO
  09F4  A90D                LDA     #HIGH RVSAVE
  09F6  8D0503              STA     DBUFHI
  09F9  BD9C0D              LDA     IOCTRL-1,X
  09FC  8D0A03              STA     DAUX1           ;DAUX1=IO PERMISSION FOR CONTROLLER
  09FF  A909                LDA     #9
  0A01  8D0803              STA     DBYTLO          ;CREATE A STREAM DCB
  0A04  A040                LDY     #$40
  0A06  A958                LDA     #STRCOM
  0A08  205B0C              JSR     MAKDCB          ;EXECUTE AN SIO CALL TO CONTROLLER
  0A0B  1001 ^0A0E          BPL     STROK4
  0A0D  60                  RTS                     ;RETURN IF ERROR ENCOUNTERED DURING SIO
  0A0E  78          STROK4  SEI
                  ATARI CAMAC Assembler Ver  1.0A  Page  22
                                                       D1:R850AMAC.       
                                                    

  0A0F  A973                LDA     #$73
  0A11  8D0FD2              STA     SKCTL
  0A14  ADBC0D              LDA     RVSAVE+8
  0A17  8D08D2              STA     AUDCTL          ;SET-UP SUPPLIED AUDIO CONTROL
  0A1A  A007                LDY     #7
  0A1C  B9B40D      STRCTL  LDA     RVSAVE,Y
  0A1F  9900D2              STA     AUDF1,Y
  0A22  88                  DEY
  0A23  10F7 ^0A1C          BPL     STRCTL  ;SET-UP BAUD RATE SUPPLIED BY CONTROLLER
                    
  0A25  A205                LDX     #5
  0A27  BD0A02      STVCTL  LDA     VSERIN,X
  0A2A  9DB40D              STA     RVSAVE,X
  0A2D  BD8B0C              LDA     RVECTS,X
  0A30  9D0A02              STA     VSERIN,X        ;REPLACE ALL SYSTEM SIO INTERRUPTS WITH OWN
  0A33  CA                  DEX
  0A34  10F1 ^0A27          BPL     STVCTL
                    
  0A36  AD1602              LDA     VIMIRQ
  0A39  8DBA0D              STA     RMAINV
  0A3C  A9FE                LDA     #LOW RBREAK
  0A3E  8D1602              STA     VIMIRQ
  0A41  AD1702              LDA     VIMIRQ+1
  0A44  8DBB0D              STA     RMAINV+1
  0A47  A90A                LDA     #HIGH RBREAK
  0A49  8D1702              STA     VIMIRQ+1        ;REPLACE AND SAVE MAIN SYSTEM IRQ VECTOR
                    
  0A4C  A900                LDA     #0
  0A4E  A002                LDY     #2
  0A50  99B10D      STRZLN  STA     INSTAT,Y
  0A53  88                  DEY
  0A54  10FA ^0A50          BPL     STRZLN          ;CLEAR ALL STATUS COUNTERS
                    
  0A56  A621                LDX     ICDNOZ
  0A58  BD9C0D              LDA     IOCTRL-1,X
  0A5B  2904                AND     #4
  0A5D  F009 ^0A68          BEQ     NOINPT          ;TEST FOR READ PERMISSION
  0A5F  A510                LDA     POKMSK
  0A61  0920                ORA     #$20
  0A63  8D0ED2              STA     IRQEN
  0A66  8510                STA     POKMSK  ;ENABLE INPUT INTERRUPT
                    
  0A68  8EBD0D      NOINPT  STX     ACTSTR  ;RECOGNIZE ACTIVE STREAM
  0A6B  8EBC0D              STX     ALLDUN  ;RESET ALL DONE FLAG TO TRUE (NON-ZERO)
  0A6E  58                  CLI
  0A6F  D036 ^0AA7          BNE     SPCXIT  ;EXIT AND RESTORE AUX1 OF THE IOCB
                    
  0A71  BD9C0D      FORCE   LDA     IOCTRL-1,X
  0A74  3003 ^0A79          BMI     FRCOPN
  0A76  A085                LDY     #NOTOPN         ;ERROR IF PORT NOT OPEN
  0A78  60                  RTS
  0A79  2908        FRCOPN  AND     #$8
  0A7B  D003 ^0A80          BNE     OKFORC          ;CHECK FOR WRITE PERMISSION
  0A7D  A087                LDY     #RDONLY         ;ERROR, OPEN FOR READ ONLY
  0A7F  60                  RTS
  0A80  BD940D      OKFORC  LDA     PUTCTR-1,X
  0A83  F022 ^0AA7          BEQ     SPCXIT          ;EXIT IF BUFFER IS EMPTY
                  ATARI CAMAC Assembler Ver  1.0A  Page  23
                                                       D1:R850AMAC.       
                                                    

  0A85  201508              JSR     PTBFUL          ;** SPECIAL ENTRY ENTRY TO PUT THE BUFFER **
  0A88  D01F ^0AA9          BNE     SPXIT2          ;EXIT, AND RESTORE I/O PERMISSIONS
                    
  0A8A  A07F        CONFIG  LDY     #$7F
  0A8C  20DD0B              JSR     SETRNS          ;SET INTERNAL TRANSLATION FLAGS
  0A8F  A942                LDA     #CNFCOM
  0A91  204F0C              JSR     SPCDCB  ;MAKE A SPECIAL DCB AND EXIT
  0A94  D013 ^0AA9          BNE     SPXIT2  ;EXIT, AND RESTORE I/O PERMISSIONS
                    
  0A96  A941        CONTRL  LDA     #CTLCOM
  0A98  204F0C              JSR     SPCDCB  ;CREATE A SPECIAL DCB AND EXIT
  0A9B  D00C ^0AA9          BNE     SPXIT2  ;EXIT, AND RESTORE I/O PERMISSIONS
                    
  0A9D  A080        TRANSL  LDY     #$80
  0A9F  20DD0B              JSR     SETRNS  ;SET INTERNAL TRANSLATION FLAGS
  0AA2  A52B                LDA     ICAX2Z
  0AA4  9DA40D              STA     RSPRCH-1,X      ;SAVE SUPPRESS/FILL CHARACTER
  0AA7  A001        SPCXIT  LDY     #SUCCES
  0AA9  A621        SPXIT2  LDX     ICDNOZ
  0AAB  BD9C0D              LDA     IOCTRL-1,X      ;FETCH DEVICE PERMISSIONS
  0AAE  852A                STA     ICAX1Z          ;AND RESTORE AFTER CIO CALL
  0AB0  C000                CPY     #0              ;RESTORE STATUS BYTE
  0AB2  60                  RTS
                    
                    
                    
                    
                            ;RS232 INITIALIZATION CODE
  0AB3  A900        RINWRM  LDA     #0      ;FIND FIRST FREE HANDLER SLOT IN TABLE
  0AB5  A200                LDX     #0
  0AB7  DD1A03      CMPTLP  CMP     HATABS,X        ;TEST FOR EQUIVALENCE
  0ABA  F008 ^0AC4          BEQ     CMPFND
  0ABC  E8                  INX
  0ABD  E8                  INX
  0ABE  E8                  INX                     ;PUSH INDEX TO NEXT HANDLER SLOT
  0ABF  E020                CPX     #MAXDEVS-1
  0AC1  90F4 ^0AB7          BCC     CMPTLP          ;UNTIL ALL ENTRIES TRIED
  0AC3  60                  RTS                     ;RETURN QUIETLY IF ERROR ENCOUNTERED
  0AC4  A952        CMPFND  LDA     #'R'
  0AC6  8DBD0D              STA     ACTSTR          ;INDICATE NO ACTIVE STREAM (SET BIT 6)
  0AC9  9D1A03              STA     HATABS,X        ;INSERT HANDLER I.D.
  0ACC  A971                LDA     #LOW HANDVS
  0ACE  9D1B03              STA     HATABS+1,X
  0AD1  A90C                LDA     #HIGH HANDVS
  0AD3  9D1C03              STA     HATABS+2,X      ;INSERT ADDRESS OF HANDLER ENTRIES
                    
  0AD6  18                  CLC
  0AD7  ADE702              LDA     MEMLO
  0ADA  69BF                ADC     #LOW RHLONG
  0ADC  8DE702              STA     MEMLO
  0ADF  ADE802              LDA     MEMLO+1
  0AE2  6906                ADC #HIGH RHLONG
  0AE4  8DE802              STA     MEMLO+1         ;RESET MEMLO TO ACCOUNT FOR HANDLER LENGTH
                    
                                                    ;CONTROL TRANSFERS HERE ON COLD/WARM START
  0AE7  A204                LDX     #4
  0AE9  A900        RINCLD  LDA     #0              ;COLD-START ENTRY, RELOCATOR SETS X=12
                  ATARI CAMAC Assembler Ver  1.0A  Page  24
                                                       D1:R850AMAC.       
                                                    

  0AEB  9D9C0D      INITLP  STA     IOCTRL-1,X
  0AEE  CA                  DEX
  0AEF  D0FA ^0AEB          BNE     INITLP          ;CLEAR ALL HANDLER PERMISSIONS
  0AF1  E8                  INX                     ;X=1
  0AF2  202309              JSR     STFUNK          ;CREATE A STATUS REQUEST FOR R DEVICE
  0AF5  18                  CLC                     ;INDICATE BOOT SUCCESS
  0AF6  A508                LDA     WARMST
  0AF8  D001 ^0AFB          BNE     WRMXIT
  0AFA  60                  RTS
  0AFB  4CFFFF      WRMXIT  JMP     $FFFF           ;DAISY-CHAIN THRU DOSINI UNLESS COLD START
                    ;       *** NOTE THAT THIS ADDRESS IS SET BY THE RELOCATOR
                    
                    ;       SUBROUTINE TO MONITOR SYSTEM INTERRUPTS AND CAPTURE BREAK-KEY
                    ;
  0AFE  2C0ED2      RBREAK  BIT     IRQST
  0B01  1003 ^0B06          BPL     ABREAK          ;TEST FOR A BREAK-KEY
  0B03  6CBA0D              JMP     (RMAINV)
                    
  0B06  48          ABREAK  PHA                     ;DO BREAK-KEY PROCESSING
  0B07  A97F                LDA     #$7F
  0B09  8D0ED2              STA     IRQEN
  0B0C  A510                LDA     POKMSK
  0B0E  8D0ED2              STA     IRQEN   ;RESET BREAK-KEY INTERRUPT
  0B11  68                  PLA
  0B12  40                  RTI             ;PULL ACC. AND RETURN
                    
                    ;       SUBROUTINE TO SERVICE INPUT INTERRUPTS
  0B13  D8          RIN     CLD
  0B14  8A                  TXA
  0B15  48                  PHA
  0B16  98                  TYA
  0B17  48                  PHA             ;SAVE REGISTERS ON STACK
  0B18  A52C                LDA     ICSPRZ
  0B1A  48                  PHA
  0B1B  A52D                LDA     ICSPRZ+1
  0B1D  48                  PHA             ;SAVE ZERO PAGE BYTES ON STACK
  0B1E  ADAD0D              LDA     NEXTIN
  0B21  852C                STA     ICSPRZ
  0B23  ADAE0D              LDA     NEXTIN+1
  0B26  852D                STA     ICSPRZ+1
  0B28  AD0DD2              LDA     SERIN
  0B2B  A000                LDY     #0
  0B2D  912C                STA     (ICSPRZ),Y      ;USE AS OWN INDIRECT POINTER
  0B2F  AD0FD2              LDA     SKSTAT
  0B32  8D0AD2              STA     SKRES           ;FETCH AND RESET SYSTEM ERROR BYTE
  0B35  49FF                EOR     #$FF
  0B37  29C0                AND     #$C0            ;INVERT AND MASK XMISSION ERROR BITS
  0B39  AEBD0D              LDX     ACTSTR
  0B3C  1D980D              ORA     RERROR-1,X
  0B3F  9D980D              STA     RERROR-1,X      ;SET LOCAL ERROR BITS
  0B42  68                  PLA
  0B43  852D                STA     ICSPRZ+1
  0B45  68                  PLA
  0B46  852C                STA     ICSPRZ          ;RESTORE BORROWED ZERO PAGE
  0B48  A200                LDX     #0
  0B4A  20250C              JSR     CIN16B          ;CIRCULAR INCREMENT NEXTIN POINTER
  0B4D  A004                LDY     #4
                  ATARI CAMAC Assembler Ver  1.0A  Page  25
                                                       D1:R850AMAC.       
                                                    

  0B4F  A206                LDX     #6
  0B51  20150C              JSR     CMP16B          ;COMPARE NEXTIN WITH NXTOUT
  0B54  D012 ^0B68          BNE     INOWRP
  0B56  A202                LDX     #2
  0B58  20250C              JSR     CIN16B  ;IF WRAPAROUND THEN CIRCULAR INCREMENT NXTOUT
  0B5B  AEBD0D              LDX     ACTSTR
  0B5E  BD980D              LDA     RERROR-1,X
  0B61  0910                ORA     #$10
  0B63  9D980D              STA     RERROR-1,X      ;SET WRAP-AROUND ERROR FLAG
  0B66  D005 ^0B6D          BNE     RINXIT
  0B68  A204        INOWRP  LDX     #4
  0B6A  200C0C              JSR     INC16B          ;16-BIT INCREMENT OF INSTAT COUNTER
                    
  0B6D              RINXIT
                    ;       *** FALL THRU TO RESTORE REGISTERS AND EXIT
                    
                    ;       SUBROUTINE TO RESTORE REGISTERS AND RETURN FROM INTERRUPT
                    ;
  0B6D  68          INTXIT  PLA
  0B6E  A8                  TAY
  0B6F  68                  PLA
  0B70  AA                  TAX
  0B71  68                  PLA
  0B72  40                  RTI             ;RESTORE REGISTERS AND RETURN FROM INTERRUPT
                    
                    ;       SUBROUTINE TO SERVICE OUTPUT INTERRUPTS
  0B73  D8          ROUT    CLD
  0B74  8A                  TXA
  0B75  48                  PHA
  0B76  98                  TYA
  0B77  48                  PHA                     ;SAVE REGISTERS
  0B78  AEBD0D              LDX     ACTSTR
  0B7B  BD940D              LDA     PUTCTR-1,X
  0B7E  DD900D              CMP     GETCTR-1,X
  0B81  D00F ^0B92          BNE     GTBFOK          ;TEST FOR BUFFER EMPTY
  0B83  8EBC0D              STX     ALLDUN          ;SET ALL DONE FLAG
  0B86  A510                LDA     POKMSK
  0B88  29E7                AND     #$E7
  0B8A  8510                STA     POKMSK
  0B8C  8D0ED2              STA     IRQEN           ;TURN-OFF ALL OUTPUT INTERRUPTS
  0B8F  18                  CLC
  0B90  90DB ^0B6D          BCC     INTXIT          ;RESTORE REGISTERS AND EXIT
                    
  0B92  20020C      GTBFOK  JSR     X32M1           ;A=32*(DEVICE#-1)
  0B95  7D900D              ADC     GETCTR-1,X
  0B98  A8                  TAY                     ;Y=INDEX INTO PROPER BUFFER
  0B99  B9110D              LDA     OUTBAS,Y
  0B9C  8D0DD2              STA     SEROUT          ;PUT BYTE INTO SERIAL PORT
  0B9F  BC900D              LDY     GETCTR-1,X
  0BA2  20F90B              JSR     CIRCIN          ;CIRCULAR INCREMENT OF GET POINTER
  0BA5  9D900D              STA     GETCTR-1,X
                    
  0BA8  CEB30D              DEC     OUSTAT  ;COUNT A BYTE REMOVED FROM BUFFER
  0BAB  AD0ED2      ROUTLP  LDA     IRQST
  0BAE  2908                AND     #8
  0BB0  F0F9 ^0BAB          BEQ     ROUTLP  ;WAIT FOR FIRST BIT OF DATA TO SHIFT IN
  0BB2  D0B9 ^0B6D          BNE     INTXIT  ;RESTORE REGISTERS AND EXIT
                  ATARI CAMAC Assembler Ver  1.0A  Page  26
                                                       D1:R850AMAC.       
                                                    

                    
                    
                    
                    ;       SUBROUTINE TO PREPARE A PUT DCB
                    ;
                    ;       GIVEN:  X=DEVICE NUMBER (1-4)
                    ;
                    ;       REGISTER USAGE
                    ;       A=GENERAL AND MATH
                    ;               SETS UP BUFFER POINTER AND LENGTH FOR PUT DCB
                    ;
  0BB4  20020C      PREPUT  JSR     X32M1           ;A=32*(DEVICE#-1)
  0BB7  6911                ADC     #LOW OUTBAS     ;CARRY CLEAR FROM SHIFT
  0BB9  8D0403              STA     DBUFLO
  0BBC  A900                LDA     #0
  0BBE  8D0903              STA     DBYTHI
  0BC1  690D                ADC     #HIGH OUTBAS
  0BC3  8D0503              STA     DBUFHI          ;POINTER=PROPER PUT BUFFER
                    
  0BC6  BD940D              LDA     PUTCTR-1,X      ;A=BUFFER LENGTH
  0BC9  8D0A03              STA     DAUX1
  0BCC  A940                LDA     #64
  0BCE  8D0803              STA     DBYTLO  ;KLUDGE TO COMPENSATE FOR AN O.S. BUG
  0BD1  60                  RTS
                    
                    
                    
                    ;       SUBROUTINE TO FIND THE PARITY OF THE ACCUMULATOR
                    ;
                    ;       GIVEN:  A=BYTE TO FIND PARITY OF
                    ;
                    ;       REGISTER USAGE:
                    ;               X=USED FOR COUNTING ONES
                    ;
                    ;       RESULT RETURNED IN CARRY
                    ;
  0BD2  A200        PARITY  LDX     #0
  0BD4  4A          CKPTLP  LSR     A
  0BD5  9001 ^0BD8          BCC     ZERBIT  ;IGNORE, ZERO-BIT
  0BD7  E8                  INX             ;COUNT A ONE BIT
  0BD8  D0FA ^0BD4  ZERBIT  BNE     CKPTLP  ;TEST FOR ALL DONE (BYTE=0)
  0BDA  8A                  TXA
  0BDB  4A                  LSR     A       ;SET CARRY DEPENDENT ON RESULT
  0BDC  60                  RTS
                    
                    
                    ;       SUBROUTINE TO SET INTERNAL TRANSLATION FLAGS
                    ;
                    ;       GIVEN:  Y=MASK SHOWING WHICH BITS WILL NOT CHANGE
                    ;               X=DEVICE NUMBER (1-4), NEW TRANSLATE FLAGS IN ICAX1Z
                    ;
                    ;       REGISTER USAGE:
                    ;               ACCUMULATOR DESTROYED, PROPER FLAGS SET OR RESET
                    ;
  0BDD  98          SETRNS  TYA
  0BDE  3DA00D              AND     RTRANS-1,X
  0BE1  9DA00D              STA     RTRANS-1,X      ;MASK-OFF OLD VALUES
                  ATARI CAMAC Assembler Ver  1.0A  Page  27
                                                       D1:R850AMAC.       
                                                    

  0BE4  98                  TYA
  0BE5  49FF                EOR     #$FF            ;INVERT MASK
  0BE7  252A                AND     ICAX1Z          ;AND MASK DATA
  0BE9  1DA00D              ORA     RTRANS-1,X
  0BEC  9DA00D              STA     RTRANS-1,X      ;OR IN NEW VALUES
  0BEF  60                  RTS
                    
                    ;       SUBROUTINE TO MASK THE HI-BIT OF RSCHAR
                    ;
                    ;       GIVEN:  RSCHAR
                    ;
                    ;       REGISTER USAGE:
                    ;               A=MASKING
                    ;               RSCHAR RETURNED MASKED AND IN ACCUMULATOR
                    ;
  0BF0  ADBE0D      CLHIBT  LDA     RSCHAR
  0BF3  297F                AND     #$7F
  0BF5  8DBE0D              STA     RSCHAR
  0BF8  60                  RTS
                    
                    
                    
                    ;       SUBROUTINE TO DO A CIRCULAR ONE BYTE INCREMENT
                    ;
                    ;       GIVEN:  Y=BYTE TO BE INCREMENTED, RBFSIZ IS DEFAULT WRAPAROUND
                    ;
                    ;       REGISTER USAGE:
                    ;               A=CIRCULARLY INCREMENTED VALUE
                    ;
  0BF9  C8          CIRCIN  INY
  0BFA  98                  TYA
  0BFB  C920                CMP     #RBFSIZ
  0BFD  9002 ^0C01          BCC     CIRXIT
  0BFF  A900                LDA     #0
  0C01  60          CIRXIT  RTS
                    
                    
                    ;       SUBROUTINE TO FIND INDEX INTO BUFFERS GIVEN WHICH OF FOUR
                    ;
                    ;       GIVEN:  X=PORT NUMBER(1-4)
                    ;
                    ;       REGISTER USAGE: ACCUMULATOR ONLY
                    ;
  0C02  8A          X32M1   TXA
  0C03  38                  SEC
  0C04  E901                SBC     #1
  0C06  0A          MULT32  ASL     A
  0C07  0A          MULT16  ASL     A
  0C08  0A                  ASL     A
  0C09  0A                  ASL     A
  0C0A  0A                  ASL     A
  0C0B  60                  RTS
                    
                    
                    ;       SUBROUTINE TO DO A 16-BIT INCREMENT
                    ;
                    ;       GIVEN:  X=0, INCREMENT NEXTIN
                  ATARI CAMAC Assembler Ver  1.0A  Page  28
                                                       D1:R850AMAC.       
                                                    

                    ;                =2, INCREMENT NXTOUT
                    ;               =4, INCREMENT INSTAT COUNTER
                    ;
                    ;
  0C0C  FEAD0D      INC16B  INC     NEXTIN,X
  0C0F  D003 ^0C14          BNE     N16XIT
  0C11  FEAE0D              INC     NEXTIN+1,X
  0C14  60          N16XIT  RTS
                    
                    ;       SUBROUTINE TO DO A 16 BIT COMPARE
                    ;
                    ;       GIVEN:  X=COMPARER AND Y=COMPAREE
                    ;               RETURNS CS IF Y>=X, CC ELSE
                    ;               0=TOP OF BUFFER
                    ;               2=BOTTOM OF BUFFER
                    ;               4=NEXT-IN POINTER
                    ;               6=NEXT-OUT POINTER
                    ;
                    ;       REGISTER USAGE: ACCUMULATOR DESTROYED
                    ;
  0C15  B9AA0D      CMP16B  LDA     TOBUF+1,Y
  0C18  DDAA0D              CMP     TOBUF+1,X
  0C1B  F001 ^0C1E          BEQ     CMPMOR          ;TEST LO-ORDER BYTES
  0C1D  60                  RTS
  0C1E  B9A90D      CMPMOR  LDA     TOBUF,Y
  0C21  DDA90D              CMP     TOBUF,X
  0C24  60                  RTS
                    
                    
                    ;       SUBROUTINE TO DO A CIRCULAR 16-BIT INCREMENT
                    ;
                    ;       GIVEN:  X=INDEX INTO POINTERS
                    ;                       0=NEXT-IN POINTER
                    ;                       2=NEXT-OUT POINTER
                    ;
                    ;       REGISTER USAGE:
                    ;               ALL REGISTERS ARE CLOBBERED
                    ;               INDICATED POINTER IS RETURNED CIRCULARLY INCREMENTED
                    
  0C25  200C0C      CIN16B  JSR     INC16B  ;INCREMENT INDICATED POINTER
  0C28  8A                  TXA
  0C29  18                  CLC
  0C2A  6904                ADC     #4
  0C2C  A8                  TAY             ;Y=PASSED POINTER+4
  0C2D  A200                LDX     #0
  0C2F  20150C              JSR     CMP16B  ;TEST FOR TOP-OF-BUFFER < POINTER
  0C32  F00E ^0C42          BEQ     CINXIT  ;STRICTLY GREATER-THAN FOR CIRCULARITY
  0C34  900C ^0C42          BCC     CINXIT
  0C36  ADAB0D      CINTRY  LDA     BOBUF   ;CIRCULAR PART OF THE INCREMENT
  0C39  99A90D              STA     TOBUF,Y
  0C3C  ADAC0D              LDA     BOBUF+1
  0C3F  99AA0D              STA     TOBUF+1,Y       ;RESET POINTER TO BOTTOM OF BUFFER
  0C42  60          CINXIT  RTS
                    
                    ;       SUBROUTINE TO TEST DEVICE NUMBER FOR VALIDITY
                    ;
                    ;       GIVEN:  DEVICE NUMBER IN ICDNOZ
                  ATARI CAMAC Assembler Ver  1.0A  Page  29
                                                       D1:R850AMAC.       
                                                    

                    ;
                    ;       REGISTER USAGE:
                    ;               RETURNS IF VALUE IS ACCEPTABLE, EXITS IF NOT
                    ;
  0C43  A621        RDVTST  LDX     ICDNOZ
  0C45  E005                CPX     #5
  0C47  B001 ^0C4A          BCS     RSERR1
  0C49  60                  RTS             ;RETURN, INDEX IS VALID
  0C4A  68          RSERR1  PLA
  0C4B  68                  PLA             ;PULL CALL FROM STACK
  0C4C  A082                LDY     #NONDEV
  0C4E  60                  RTS
                    
                    
                    
                    
                    ;       SUBROUTINE TO CREATE A SPECIAL I/O DCB
                    ;
                    ;       GIVEN:  A=DCB COMMAND BYTE
                    ;               X=DEVICE NUMBER
                    ;
                    ;       REGISTER USAGE:
                    ;               Y IS DESTROYED
                    ;
  0C4F  A42A        SPCDCB  LDY     ICAX1Z
  0C51  8C0A03              STY     DAUX1
  0C54  A42B                LDY     ICAX2Z
  0C56  8C0B03              STY     DAUX2   ;PASS INFO TO DCB
  0C59  A000                LDY     #0
                    ;FALL THRU TO MAKE A DCB ****
                    
                    
                    ;       SUBROUTINE TO MAKE A DCB
                    ;
                    ;       GIVEN:  A=DCB COMMAND BYTE
                    ;               X=UNIT NUMBER (1-4)
                    ;               Y=DCB STATUS BYTE
                    ;
                    ;       REGISTER USAGE:
                    ;               A=GENERAL PURPOSE (SET-UP CONSTANT DEVICE ADDRESS AND TIMEOUT)
                    ;
  0C5B  8D0203      MAKDCB  STA     DCOMND
  0C5E  8E0103              STX     DUNIT
  0C61  8C0303              STY     DSTATS
  0C64  A050                LDY     #RSADRS
  0C66  8C0003              STY     DDEVIC  ;SET-UP DEVICE ADDRESS
  0C69  A008                LDY     #8
  0C6B  8C0603              STY     DTIMLO  ;SET-UP A TIME-OUT
  0C6E  4C59E4              JMP     SIOV    ;PASS CONTROL TO SIO
                    
                    
  0C71  FF06        HANDVS  DW      RHOPEN-1
  0C73  2507                DW      RHCLOS-1
  0C75  5E08                DW      RHGET-1
  0C77  6D07                DW      RHPUT-1
  0C79  0C09                DW      RHSTAT-1
  0C7B  5609                DW      RHSPEC-1
                  ATARI CAMAC Assembler Ver  1.0A  Page  30
                                                       D1:R850AMAC.       
                                                    

  0C7D  4CB30A              JMP     RINWRM
  0C80  00                  DB      0
                    
  0C81  700A950A89  JMPTBL  DW      FORCE-1,CONTRL-1,CONFIG-1,TRANSL-1,STREAM-1
  0C8B  130B730B73  RVECTS  DW      RIN,ROUT,ROUT
                    
                    
                    
                    
                    
  0C91              INBASE                  ;INPUT BUFFERS
  0C91  = 0020      INBF1   DS      RBFSIZ
  0CB1  = 0020      INBF2   DS      RBFSIZ
  0CD1  = 0020      INBF3   DS      RBFSIZ
  0CF1  = 0020      INBF4   DS      RBFSIZ
  0D11              OUTBAS                  ;OUTPUT BUFFERS
  0D11  = 0020      OUTBF1  DS      RBFSIZ
  0D31  = 0020      OUTBF2  DS      RBFSIZ
  0D51  = 0020      OUTBF3  DS      RBFSIZ
  0D71  = 0020      OUTBF4  DS      RBFSIZ
  0D91  = 0004      GETCTR  DS      4       ;COUNTER FOR NUMBER OF ELEMENTS IN INPUT BUFFERS
  0D95  = 0004      PUTCTR  DS      4       ;COUNTER FOR ELEMENTS IN OUTPUT BUFFERS
  0D99  = 0004      RERROR  DS      4       ;LOCAL PARITY AND INPUT ERROR STORAGE
                    ;               BIT 7=FRAME ERROR
                    ;               BIT 6=OVERRUN ERROR
                    ;               BIT 5=INPUT PARITY ERROR
                    ;               BIT 4=WRAPAROUND FLAG
                    
  0D9D  = 0004      IOCTRL  DS      4       ;I/O CONTROL, PERMISSIONS GRANTED A PORT
                    ;               BIT 7=OPEN/CLOSE
                    ;               BIT 3=WRITE PERMISSION
                    ;               BIT 2=READ PERMISSION
                    ;               BIT 0=STREAM PERMISSION
                    
  0DA1  = 0004      RTRANS  DS      4       ;LOCAL TRANSLATION AND PARITY REQUESTED FOR PORT
                    ;               BIT 7=ONE OR TWO STOP BITS
                    ;               BIT 6=APPEND/NO APPEND LINE FEED
                    ;               BITS 4,5=TRANSLATION MODE
                    ;                       BIT5=1 ==>NO TRANSLATE
                    ;                       BIT4=1 ==>SHORT ASCII TRANSLATION
                    ;                           =0 ==>LONG ASCII TRANSLATION
                    ;               BITS 2,3=INPUT PARITY MODE
                    ;                       0 ==> IGNORE PARITY
                    ;                       1 ==> ODD CHECK
                    ;                       2 ==> EVEN CHECK
                    ;                       3 ==> STRIP PARITY
                    ;               BITS 0,1=OUTPUT PARITY MODE
                    ;                       0 ==> SKIP ANY PARITY
                    ;                       1 ==> ODD PARITY SET
                    ;                       2 ==> EVEN PARITY SET
                    ;                       3 ==> ALWAYS SET PARITY BIT
                    
  0DA5  = 0004      RSPRCH  DS      4       ;USER-DEFINED SUPPRESSION CHARACTER
  0DA9  = 0002      TOBUF   DS      2       ;TOP OF BUFFER POINTER
  0DAB  = 0002      BOBUF   DS      2       ;BOTTOM OF BUFFER POINTER
  0DAD  = 0002      NEXTIN  DS      2       ;NEXT FREE INPUT LOCATION IN BUFFER
  0DAF  = 0002      NXTOUT  DS      2       ;ELDEST-USED OUTPUT LOCATION IN BUFFER
                  ATARI CAMAC Assembler Ver  1.0A  Page  31
                                                       D1:R850AMAC.       
                                                    

  0DB1  = 0002      INSTAT  DS      2       ;# OF BYTES IN INPUT STREAM BUFFER (ADDRESS STYLE)
  0DB3  = 0001      OUSTAT  DS      1       ;# OF BYTES IN OUTPUT STREAM BUFFER
  0DB4  = 0006      RVSAVE  DS      6       ;TEMPORARY FOR SYSTEM VECTORS WHEN TAKEN
  0DBA  = 0002      RMAINV  DS      2       ;STORAGE FOR VIMIRQ, MAIN SYTEM IRQ VECTOR
  0DBC  = 0001      ALLDUN  DS      1       ;FLAG INDICATING INTERUPT-DRIVEN I/O IS COMPLETE
  0DBD  = 0001      ACTSTR  DS      1       ;NUMBER OF DEVICE WHICH IS ACTIVELY STREAMING (BIT6 SET=NONE)
  0DBE  = 0001      RSCHAR  DS      1       ;RS232 XMIT CHARACTER (UNTRANSLATED)
  0DBF              DUMMY                   ;END OF BUFFERS POINTER
        = 06BF      RHLONG  =       DUMMY-ORIGIN    ;TOTAL LENGTH OF HANDLER
                    
                    
                    ;       END     ORIGIN
                    


  no ERRORs,  669 Labels, $67E8 free.




     ABREAK 0B06     24/20   24#23  
     ACTSTR 0DBD     15/11   15/34   15/35   17/ 5   18/10   19/50   20/43   22/47   23/44   24/52   25/10   25/36   31#10  
   n ADDCOR 030E      9#31  
   n ADRESS 0064      5#32  
   n AFP    D800     10#50  
     ALLDUN 0DBC     15/21   17/53   22/48   25/40   31# 9  
   n ALLPOT D208     12#20  
     ANTIC  D400     13#39   13/40   13/41   13/42   13/43   13/44   13/45   13/46   13/47   13/48   13/49   13/50   13/51  
                     13/52   13/53   13/54  
   n APPEND 0001      2#45  
   n APPMHI 000E      3#56  
   n ATACHR 02FB      8#59  
   n ATAN   BE43     11#21  
   n ATRACT 004D      5#11  
   n AUDC1  D201     12#28  
   n AUDC2  D203     12#30  
   n AUDC3  D205     12#32  
   n AUDC4  D207     12#34  
     AUDCTL D208     12#35   22/ 8  
     AUDF1  D200     12#27   22/11  
   n AUDF2  D202     12#29  
   n AUDF3  D204     12#31  
   n AUDF4  D206     12#33  
     BADBUF 0098     14#33   21/15  
   n BADIOC 0086      3#19  
   n BADMOD 0091      3#31  
   n BFENHI 0035      4#44  
   n BFENLO 0034      4#43  
   n BITMSK 006E      5#39  
   n BLIM   028A      7#47  
   n BLKBDV E471      2#11  
     BOBUF  0DAB     21/ 7   21/11   21/20   21/23   21/25   21/28   28/53   28/55   30#59  
   n BOOT?  0009      3#53  
   n BOOTAD 0242      7# 9  
   n BOTSCR 02BF      8#19  
   n BPTR   003D      4#54  
   n BRKABT 0080      3#13  
                  ATARI CAMAC Assembler Ver  1.0A  Page  32
                                                       D1:R850AMAC.       
                                                    

   n BRKKEY 0011      3#61  
   n BUFADR 0015      4# 7  
   n BUFCNT 006B      5#37  
   n BUFRFL 0038      4#47  
   n BUFRHI 0033      4#42  
   n BUFRLO 0032      4#41  
   n BUFSTR 006C      5#38  
   n CASBUF 03FD     10#21  
   n CASETV E440      1#50  
   n CASFLG 030F      9#32  
   n CASINI 0002      3#46  
   n CASORG EF41      1#21  
   n CASSBT 004B      5# 8  
   n CASSET 0000      2#58  
   n CAUX1  023C      6#57  
   n CAUX2  023D      6#58  
   n CBAUDH 02EF      8#47  
   n CBAUDL 02EE      8#46  
   n CCOMND 023B      6#56  
   n CDEVIC 023A      6#55  
   n CDTMA1 0226      6#36  
   n CDTMA2 0228      6#37  
   n CDTMF3 022A      6#38  
   n CDTMF4 022C      6#40  
   n CDTMF5 022E      6#42  
   n CDTMV1 0218      6#29  
   n CDTMV2 021A      6#30  
   n CDTMV3 021C      6#31  
   n CDTMV4 021E      6#32  
   n CDTMV5 0220      6#33  
   n CH     02FC      8#60  
   n CH1    02F2      8#51  
   n CHACT  02F3      8#53  
   n CHACTL D401     13#41  
   n CHAR   02FA      8#58  
   n CHBAS  02F4      8#54  
   n CHBASE D409     13#47  
   n CHKERR 008F      3#28  
   n CHKSNT 003B      4#50  
   n CHKSUM 0031      4#40  
   n CHRORG E000      1#13  
     CIN16B 0C25     18/43   24/60   25/ 9   28#44  
     CINTRY 0C36     21/33   28#53  
     CINXIT 0C42     28/51   28/52   28#57  
   n CIOCHR 002F      4#37  
   n CIOINV E46E      2#10  
   n CIOORG E4A6      1#16  
   n CIOV   E456      1#59  
     CIRCIN 0BF9     17/41   25/54   27#34  
     CIRXIT 0C01     27/37   27#39  
   n CIX    00F2     11#35  
   n CKEY   004A      5# 7  
     CKPTLP 0BD4     26#42   26/45  
     CLHIBT 0BF0     16/50   19/13   19/27   27#20  
   n CLOSE  000C      2#27  
     CLSPUT 0764     15/19   15#41  
     CLSTRM 073A     15/12   15#21   15/22  
                  ATARI CAMAC Assembler Ver  1.0A  Page  33
                                                       D1:R850AMAC.       
                                                    

     CLSVCT 074E     15#29   15/32  
     CMP16B 0C15     18/19   25/ 6   28#25   28/50  
     CMPFND 0AC4     23/36   23#43  
     CMPMOR 0C1E     28/27   28#29  
     CMPTLP 0AB7     23#35   23/41  
   n CNFCMD 0024     14#27  
     CNFCOM 0042     14#24   23/10  
   n COLAC  0072      5#42  
   n COLBK  D01A     13#12  
   n COLCRS 0055      5#22  
   n COLDST 0244      7#10  
   n COLDSV E477      2#13  
   n COLINC 007A      5#47  
   n COLOR0 02C4      8#26  
   n COLOR1 02C5      8#27  
   n COLOR2 02C6      8#28  
   n COLOR3 02C7      8#29  
   n COLOR4 02C8      8#30  
   n COLPF0 D016     13# 8  
   n COLPF1 D017     13# 9  
   n COLPF2 D018     13#10  
   n COLPF3 D019     13#11  
   n COLPM0 D012     12#61  
   n COLPM1 D013     13# 5  
   n COLPM2 D014     13# 6  
   n COLPM3 D015     13# 7  
   n COLRSH 004F      5#13  
     CONFIG 0A8A     23# 8   30/ 8  
   n CONSOL D01F     13#17  
     CONTRL 0A96     23#14   30/ 8  
   n COS    BD73     11#20  
   n COUNTR 007E      5#51  
   n CR     009B      3# 6  
   n CRETRY 0036      4#45  
   n CRITIC 0042      4#59  
   n CRSINH 02F0      8#49  
   n CRSROR 008D      3#26  
   n CSOPIV E47D      2#15  
   n CSTAT  0288      7#45  
     CTIA   D000     12#42   12/43   12/44   12/45   12/46   12/47   12/48   12/49   12/50   12/51   12/52   12/53   12/54  
                     12/55   12/56   12/57   12/58   12/59   12/60   12/61   13/ 5   13/ 6   13/ 7   13/ 8   13/ 9   13/10  
                     13/11   13/12   13/13   13/14   13/15   13/16   13/17   13/18   13/19   13/20   13/21   13/22   13/23  
                     13/24   13/25   13/26   13/27   13/28   13/29   13/30   13/31   13/32   13/33   13/34   13/35   13/36  
                     13/37  
   n CTLCMD 0022     14#28  
     CTLCOM 0041     14#22   23/14  
     DAUX1  030A      9#27   15/40   21/53   26/25   29/30  
     DAUX2  030B      9#28   29/32  
   n DBSECT 0241      7# 8  
     DBUFHI 0305      9#22   19/56   21/51   26/22  
     DBUFLO 0304      9#21   19/54   21/49   26/18  
     DBYTHI 0309      9#26   19/60   21/47   26/20  
     DBYTLO 0308      9#25   19/58   21/55   26/27  
   n DCB    0300      9#16  
     DCOMND 0302      9#19   29/46  
     DDEVIC 0300      9#17   29/50  
   n DEGFLG 00FB     11#40  
                  ATARI CAMAC Assembler Ver  1.0A  Page  34
                                                       D1:R850AMAC.       
                                                    

   n DEGON  0006     11#43  
   n DELETE 0021      2#35  
   n DELTAC 0077      5#45  
   n DELTAR 0076      5#44  
   n DERROR 0090      3#30  
   n DFLAGS 0240      7# 7  
   n DIGRT  00F1     11#34  
   n DINDEX 0057      5#23  
   n DIRECT 0002      2#46  
   n DISK   0000      2#60  
   n DISKIV E450      1#57  
   n DISPLY 0000      2#56  
   n DLISTH D403     13#43  
   n DLISTL D402     13#42  
   n DMACTL D400     13#40  
   n DMASK  02A0      8# 6  
   n DNACK  008B      3#24  
   n DOSINI 000C      3#55  
   n DOSVEC 000A      3#54  
     DOTRNS 08EF     19/21   19#26  
   n DRAWLN 0011      2#32  
   n DRETRY 0037      4#46  
   n DRKMSK 004E      5#12  
   n DSKFMS 0018      4#11  
   n DSKINV E453      1#58  
   n DSKORG EDEA      1#19  
   n DSKTIM 0246      7#14  
   n DSKUTL 001A      4#12  
   n DSPFLG 02FE      9# 5  
   n DSTAT  004C      5# 9  
     DSTATS 0303      9#20   29/48  
     DTIMLO 0306      9#23   29/52  
     DUMMY  0DBF     31#12   31/13  
     DUNIT  0301      9#18   29/47  
   n DUNUSE 0307      9#24  
     DVSTAT 02EA      8#45   19/46   19/53   19/55   20/ 8   20/ 9   20/15  
   n EDITRV E400      1#46  
   n EEXP   00ED     11#30  
   n ENDPT  0074      5#43  
   n EOFERR 0088      3#21  
   n ERRFLG 023F      7# 5  
   n ESCFLG 02A2      8# 8  
   n ESIGN  00EF     11#32  
   n EXP    DDC0     11#14  
   n EXP10  DDCC     11#15  
   n FADD   DA66     10#57  
   n FASC   D8E6     10#52  
   n FCHRFL 00F0     11#33  
   n FDIV   DB28     10#59  
   n FEOF   003F      4#56  
   n FILDAT 02FD      8#61  
   n FILFLG 02B7      8#12  
   n FILLIN 0012      2#33  
   n FLD0P  DD8D     10#61  
   n FLD0R  DD89     10#60  
   n FLD1P  DD9C     11# 6  
   n FLD1R  DD98     11# 5  
                  ATARI CAMAC Assembler Ver  1.0A  Page  35
                                                       D1:R850AMAC.       
                                                    

   n FLPTR  00FC     11#44  
   n FMOVE  DDB6     11# 9  
   n FMSZPG 0043      4#61  
   n FMUL   DADB     10#58  
   n FNCNOT 0092      3#32  
     FORCE  0A71     22#52   30/ 8  
   n FORMAT 0022      2#36  
   n FPI    D9D2     10#55  
     FPREC  0006     10#48   11/25   11/26   11/27   11/28   11/52   11/53  
     FPSCR  05E6     11#52   11/53   11/54  
     FPSCR1 05EC     11#53   11/55  
   n FPTR2  00FE     11#45  
   n FR0    00D4     11#25  
   n FR1    00E0     11#27  
   n FR2    00E6     11#28  
   n FRCCMD 0020     14#29  
     FRCOPN 0A79     22/53   22#56  
   n FRE    00DA     11#26  
   n FREQ   0040      4#57  
   n FRMERR 008C      3#25  
   n FRX    00EC     11#29  
   n FSCR   05E6     11#54  
   n FSCR1  05EC     11#55  
   n FST0P  DDAB     11# 8  
   n FST0R  DDA7     11# 7  
   n FSUB   DA60     10#56  
   n FTYPE  003E      4#55  
     GBFMTY 0878     18#17   18/20  
   n GETCHR 0007      2#24  
     GETCTR 0D91     21/45   25/38   25/49   25/53   25/55   30#25  
   n GETREC 0005      2#23  
     GETSTR 0874     18/11   18#15  
   n GLBABS 02E0      8#37  
   n GPRIOR 026F      7#18  
   n GRACTL D01D     13#15  
   n GRAFM  D011     12#60  
   n GRAFP0 D00D     12#56  
   n GRAFP1 D00E     12#57  
   n GRAFP2 D00F     12#58  
   n GRAFP3 D010     12#59  
     GTBFOK 0B92     25/39   25#48  
     GTSBOK 08AA     18/40   18#42  
     HANDVS 0C71     23/46   23/48   29#56  
     HATABS 031A      9#45    9/46   23/35   23/45   23/47   23/49  
   n HITCLR D01E     13#16  
   n HOLD1  0051      5#18  
   n HOLD2  029F      8# 5  
   n HOLD3  029D      7#60  
   n HOLD4  02BC      8#16  
   n HOLD5  02BD      8#17  
   n HOLDCH 007C      5#49  
   n HPOSM0 D004     12#47  
   n HPOSM1 D005     12#48  
   n HPOSM2 D006     12#49  
   n HPOSM3 D007     12#50  
   n HPOSP0 D000     12#43  
   n HPOSP1 D001     12#44  
                  ATARI CAMAC Assembler Ver  1.0A  Page  36
                                                       D1:R850AMAC.       
                                                    

   n HPOSP2 D002     12#45  
   n HPOSP3 D003     12#46  
   n HSCROL D404     13#44  
   n ICAX1  034A      9#61  
     ICAX1Z 002A      4#33   14/51   20/55   23/25   27/ 7   29/29  
   n ICAX2  034B     10# 5  
     ICAX2Z 002B      4#34   23/20   29/31  
   n ICBAH  0345      9#56  
     ICBAHZ 0025      4#28   21/10  
   n ICBAL  0344      9#55  
     ICBALZ 0024      4#27   21/ 6  
   n ICBLH  0349      9#60  
     ICBLHZ 0029      4#32   20/59   21/12  
   n ICBLL  0348      9#59  
     ICBLLZ 0028      4#31   20/58   21/ 8  
   n ICCOM  0342      9#53  
   n ICCOMT 0017      4# 9  
     ICCOMZ 0022      4#25   20/22  
     ICDNO  0341      9#52   15/47  
     ICDNOZ 0021      4#24   16/ 5   16/25   16/61   18/45   19/ 7   19/17   21/39   22/38   23/23   29/ 9  
   n ICHID  0340      9#51  
   n ICHIDZ 0020      4#23  
   n ICIDNO 002E      4#36  
   n ICPTH  0347      9#58  
   n ICPTHZ 0027      4#30  
   n ICPTL  0346      9#57  
   n ICPTLZ 0026      4#29  
   n ICSPR  034C     10# 6  
     ICSPRZ 002C      4#35    4/36    4/37   18/21   18/23   18/26   18/28   18/30   18/33   18/35   24/37   24/39   24/42  
                     24/44   24/47   24/56   24/58  
   n ICSTA  0343      9#54  
   n ICSTAZ 0023      4#26  
   n IFP    D9AA     10#53  
     INBASE 0C91     21/19   21/21   30#15  
   n INBF1  0C91     30#16  
   n INBF2  0CB1     30#17  
   n INBF3  0CD1     30#18  
   n INBF4  0CF1     30#19  
   n INBUFF 00F3     11#36  
     INC16B 0C0C     25/16   28# 9   28/44  
     INITLP 0AEB     24# 5   24/ 7  
     INOEOL 08FB     19/29   19#32  
     INOWRP 0B68     25/ 7   25#15  
   n INSCLR 0020      2#51  
   n INSDAT 007D      5#50  
     INSTAT 0DB1     18/37   18/39   18/41   20/14   22/34   31# 5  
   n INTABS 0200      6#16  
   n INTEMP 022D      6#41  
   n INTINV E46B      2# 9  
   n INTORG E6D5      1#17  
     INTRNS 08DE     18/54   19#17  
     INTRXT 090A     19/31   19/33   19/37   19#40  
     INTXIT 0B6D     25#23   25/46   25/61  
   n INTZBS 0010      3#59  
   n INVFLG 02B6      8#11  
   n IOCB   0340      9#50  
   n IOCBAS 0020      4#22  
                  ATARI CAMAC Assembler Ver  1.0A  Page  37
                                                       D1:R850AMAC.       
                                                    

     IOCBSZ 0010      4#20    4/21   10/ 7  
   n IOCFRE 00FF      2#41  
     IOCTRL 0D9D     14/46   14/59   15/42   15/54   17/61   20/39   21/40   21/52   22/39   22/52   23/24   24/ 5   30#33  
     IRQEN  D20E     12#39   17/51   22/44   24/25   24/27   25/44  
     IRQST  D20E     12#25   24/19   25/58  
     JMPTBL 0C81     20/29   20/31   30# 8  
   n KBCODE D209     12#21  
   n KBD    0000      2#55  
   n KBDORG F3E4      1#23  
   n KEYBDV E420      1#48  
   n KEYDEL 02F1      8#50  
   n LBFEND 05FF     11#56  
   n LBPR1  057E     11#48  
   n LBPR2  057F     11#49  
     LBUFF  0580     11#50   11/51  
   n LEDGE  0002      5#15  
     LFNOER 07AB     16/23   16#25  
   n LINBUF 0247      7#16  
   n LINZBS 0000      3#43  
   n LMARGN 0052      5#19  
   n LOCKFL 0023      2#37  
   n LOG    DECD     11#16  
   n LOG10  DED1     11#17  
   n LOGCOL 0063      5#31  
   n LOGMAP 02B2      8#10  
   n LPENH  0234      6#49  
   n LPENV  0235      6#50  
   n M0PF   D000     13#18  
   n M0PL   D008     13#26  
   n M1PF   D001     13#19  
   n M1PL   D009     13#27  
   n M2PF   D002     13#20  
   n M2PL   D00A     13#28  
   n M3PF   D003     13#21  
   n M3PL   D00B     13#29  
     MAKDCB 0C5B     15/44   17/29   20/ 6   21/58   29#46  
     MAXDEV 0021      9#46   23/40  
     MAXIOC 0080      4#21   10/ 7  
     MEMLO  02E7      8#43   23/52   23/54   23/55   23/57  
   n MEMTOP 02E5      8#42  
     MLTTMP 0066      5#33    5/34  
   n MODEM  0000      2#59  
   n MONORG F0E3      1#22  
     MTPBUF 075F     15/15   15#39  
   n MULT16 0C07     27#52  
   n MULT32 0C06     27#51  
   n MXDMOD 0010      2#50  
     N16XIT 0C14     28/10   28#12  
   n NEWCOL 0061      5#30  
   n NEWROW 0060      5#29  
     NEXTIN 0DAD     24/41   24/43   28/ 9   28/11   30#60  
   n NMIEN  D40E     13#52  
   n NMIRES D40F     13#53  
   n NMIST  D40F     13#54  
   n NOCKSM 003C      4#51  
     NOINPT 0A68     22/41   22#47  
     NONDEV 0082      3#15   15/50   29/15  
                  ATARI CAMAC Assembler Ver  1.0A  Page  38
                                                       D1:R850AMAC.       
                                                    

     NOSTAC 009A     14#35   18/12  
     NOSTER 0097     14#32   20/49  
   n NOTE   0026      2#40  
     NOTOPN 0085      3#18   20/41   22/54  
   n NSIGN  00EE     11#31  
     NVALID 0084      3#17   20/35  
     NXTOUT 0DAF     18/25   18/27   30#61  
     ODDOUT 07EE     16/54   16#60  
     OKFORC 0A80     22/57   22#60  
   n OLDADR 005E      5#28  
   n OLDCHR 005D      5#27  
   n OLDCOL 005B      5#26  
   n OLDROW 005A      5#25  
     ONESTP 0852     17/48   17#50  
   n OPEN   0003      2#22  
     OPNIN  0004      2#47    2/49  
   n OPNINO 000C      2#49  
     OPNOT  0008      2#48    2/49  
   n OPNTMP 0066      5#34  
     ORIGIN 0700     14#18   14/42   31/13  
     OSHRTR 07BD     16/31   16#34  
     OTRANS 0795     16/12   16#15  
     OUSTAT 0DB3     17/31   17/43   25/57   31# 6  
     OUTBAS 0D11     17/12   17/39   25/51   26/17   26/21   30#20  
   n OUTBF1 0D11     30#21  
   n OUTBF2 0D31     30#22  
   n OUTBF3 0D51     30#23  
   n OUTBF4 0D71     30#24  
   n OVRRUN 008E      3#27  
   n P0PF   D004     13#22  
   n P0PL   D00C     13#30  
   n P1PF   D005     13#23  
   n P1PL   D00D     13#31  
   n P2PF   D006     13#24  
   n P2PL   D00E     13#32  
   n P3PF   D007     13#25  
   n P3PL   D00F     13#33  
   n PACTL  D302     13#58  
   n PADDL0 0270      7#20  
   n PADDL1 0271      7#21  
   n PADDL2 0272      7#22  
   n PADDL3 0273      7#23  
   n PADDL4 0274      7#24  
   n PADDL5 0275      7#25  
   n PADDL6 0276      7#26  
   n PADDL7 0277      7#27  
     PARITY 0BD2     16/51   18/59   26#41  
     PAROT2 07CB     16/14   16#44  
     PAROUT 07C8     16/22   16/27   16/29   16/33   16/37   16#43  
   n PBCTL  D303     13#59  
   n PBPNT  001D      4#15  
   n PBUFSZ 001E      4#16  
   n PCOLR0 02C0      8#22  
   n PCOLR1 02C1      8#23  
   n PCOLR2 02C2      8#24  
   n PCOLR3 02C3      8#25  
   n PENH   D40C     13#50  
                  ATARI CAMAC Assembler Ver  1.0A  Page  39
                                                       D1:R850AMAC.       
                                                    

   n PENV   D40D     13#51  
     PIA    D300     13#55   13/56   13/57   13/58   13/59  
     PINCLR 08DB     18/56   19/ 6   19/11   19#13  
     PINERR 08CD     19# 7   19/12  
     PINODD 08D9     19/ 5   19#12  
     PLYARG 05E0     11#51   11/52  
   n PLYEVL DD40     11#10  
   n PMBASE D407     13#46  
   n POINT  0025      2#39  
     POKEY  D200     12#11   12/12   12/13   12/14   12/15   12/16   12/17   12/18   12/19   12/20   12/21   12/22   12/23  
                     12/24   12/25   12/26   12/27   12/28   12/29   12/30   12/31   12/32   12/33   12/34   12/35   12/36  
                     12/37   12/38   12/39   12/40  
     POKMSK 0010      3#60   17/44   17/50   22/42   22/45   24/26   25/41   25/43  
   n PORTA  D300     13#56  
   n PORTB  D301     13#57  
   n POT0   D200     12#12  
   n POT1   D201     12#13  
   n POT2   D202     12#14  
   n POT3   D203     12#15  
   n POT4   D204     12#16  
   n POT5   D205     12#17  
   n POT6   D206     12#18  
   n POT7   D207     12#19  
   n POTGO  D20B     12#23  
     POTXIT 07F0     16/46   16/55   16/59   16#61  
     PREPUT 0BB4     15/17   17/24   26#16  
   n PRINTR 0000      2#57  
   n PRINTV E430      1#49  
   n PRIOR  D01B     13#13  
   n PRNBUF 03C0     10# 9  
   n PRNORG EE78      1#20  
     PRTOPN 0096     14#31   14/48  
   n PRVOPN 0081      3#14  
     PTBFUL 0815     17/16   17/20   17#24   23/ 5  
     PTDVOK 0778     15/49   15#53  
   n PTEMP  001F      4#17  
   n PTIMOT 001C      4#14  
   n PTRIG0 027C      7#32  
   n PTRIG1 027D      7#33  
   n PTRIG2 027E      7#34  
   n PTRIG3 027F      7#35  
   n PTRIG4 0280      7#36  
   n PTRIG5 0281      7#37  
   n PTRIG6 0282      7#38  
   n PTRIG7 0283      7#39  
   n PUTCHR 000B      2#26  
     PUTCTR 0D95     14/61   15/14   17/ 9   17/13   17/19   17/27   17/36   17/40   17/42   21/44   22/60   25/37   26/24  
                     30#26  
   n PUTREC 0009      2#25  
     PUTSTR 0824     17/ 6   17#31   17/33  
   n RADFLG 00FB     11#41  
   n RADON  0000     11#42  
   n RAMLO  0004      3#47  
   n RAMSIZ 02E4      8#41  
   n RAMTOP 006A      5#36  
   n RANDOM D20A     12#22  
     RBFSIZ 0020     14#19   17/18   17/32   21/26   27/36   30/16   30/17   30/18   30/19   30/21   30/22   30/23   30/24  
                  ATARI CAMAC Assembler Ver  1.0A  Page  40
                                                       D1:R850AMAC.       
                                                    

   n RBLOKV E47A      2#14  
     RBREAK 0AFE     22/25   22/29   24#19  
     RDJOIN 09D0     21/14   21#32  
     RDONLY 0087      3#20   15/57   22/58  
     RDVTST 0C43     14/44   15/ 9   17/59   19/43   20/21   29# 9  
     READOK 086C     18/ 6   18#10  
   n RECVDN 0039      4#48  
   n REDGE  0027      5#16  
     REGOTR 07B5     16/17   16#30  
   n RENAME 0020      2#34  
     RERROR 0D99     15/ 5   19/ 9   19/10   19/45   19/49   24/53   24/54   25/11   25/13   30#27  
     RHCLOS 0726     15# 9   29/57  
     RHGET  085F     17#59   29/58  
     RHLONG 06BF     23/53   23/56   31#13  
     RHOPEN 0700     14#44   29/56  
     RHPUT  076E     15#47   29/59  
     RHSPEC 0957     20#21   29/61  
     RHSTAT 090D     19#43   29/60  
     RIN    0B13     24#32   30/ 9  
   n RINCLD 0AE9     23#61  
     RINWRM 0AB3     23#33   30/ 5  
     RINXIT 0B6D     25/14   25#18  
     RMAINV 0DBA     15/24   15/26   22/24   22/28   24/21   31# 8  
   n RMARGN 0053      5#20  
     RNTOPN 070B     14/47   14#51  
     ROKOPN 0715     14/54   14#57  
     ROUT   0B73     25#31   30/ 9   30/ 9  
     ROUTLP 0BAB     25#58   25/60  
   n ROWAC  0070      5#41  
   n ROWCRS 0054      5#21  
   n ROWINC 0079      5#46  
     RSADRS 0050     14#30   29/49  
     RSCHAR 0DBE     15/53   16/15   16/43   16/56   16/58   17/11   17/38   18/31   18/58   19/22   19/47   20/ 7   27/20  
                     27/22   31#11  
     RSERR1 0C4A     29/11   29#13  
     RSPRCH 0DA5     19/38   23/21   30#57  
     RSTAT  0053     14#20   20/ 5  
   n RTCLOK 0012      4# 5  
     RTRANS 0DA1     16/ 9   16/18   16/44   17/45   18/50   19/18   26/60   26/61   27/ 8   27/ 9   30#39  
     RVECTS 0C8B     22/18   30# 9  
     RVSAVE 0DB4     15/29   21/48   21/50   22/ 7   22/10   22/17   31# 7  
   n SAVADR 0068      5#35  
   n SAVIO  0316      9#38  
   n SAVMSC 0058      5#24  
   n SCREDT 0000      2#54  
   n SCRENV E410      1#47  
   n SCRFLG 02BB      8#15  
   n SCRMEM 0093      3#33  
   n SDLSTH 0231      6#45  
   n SDLSTL 0230      6#44  
   n SDMCTL 022F      6#43  
   n SENDEV E468      2# 8  
     SERIN  D20D     12#24   24/45  
     SEROUT D20D     12#38   25/52  
     SETRNS 0BDD     23/ 9   23/19   26#59  
   n SETVBV E45C      1#61  
   n SHFAMT 006F      5#40  
                  ATARI CAMAC Assembler Ver  1.0A  Page  41
                                                       D1:R850AMAC.       
                                                    

   n SHFLOK 02BE      8#18  
   n SIN    BD81     11#19  
   n SIOINV E465      2# 7  
   n SIOORG E944      1#18  
     SIOV   E459      1#60   29/53  
   n SIZEM  D00C     12#55  
   n SIZEP0 D008     12#51  
   n SIZEP1 D009     12#52  
   n SIZEP2 D00A     12#53  
   n SIZEP3 D00B     12#54  
     SKCTL  D20F     12#40   22/ 6  
     SKRES  D20A     12#37   24/49  
     SKSTAT D20F     12#26   24/48  
   n SOUNDR 0041      4#58  
     SPCDCB 0C4F     23/11   23/15   29#29  
     SPCXIT 0AA7     22/50   22/61   23#22  
   n SPECIL 000E      2#29  
     SPROUT 07C5     16/35   16#38  
     SPXIT2 0AA9     23/ 6   23/12   23/16   23#23  
   n SQR    BEB1     11#22  
   n SRTIMR 022B      6#39  
   n SSFLAG 02FF      9# 6  
   n SSKCTL 0232      6#46  
   n STACKP 0318      9#40  
     STACTV 0099     14#34   20/45  
     STASTR 094A     19/51   20#13  
   n STATIS 000D      2#28  
   n STATUS 0030      4#39  
     STFUNK 0923     19#53   24/ 9  
   n STICK0 0278      7#28  
   n STICK1 0279      7#29  
   n STICK2 027A      7#30  
   n STICK3 027B      7#31  
   n STIMER D209     12#36  
     STINLP 09D2     21#33   21/37  
     STNORD 09DB     20/53   21#39  
     STNOWT 09EC     21/42   21#47  
     STOUTP 07E4     16/48   16#56   16/60  
   n STRCMD 0028     14#25  
     STRCOM 0058     14#23   21/57  
     STRCTL 0A1C     22#10   22/13  
     STREAM 0972     20#39   30/ 8  
   n STRIG0 0284      7#40  
   n STRIG1 0285      7#41  
   n STRIG2 0286      7#42  
   n STRIG3 0287      7#43  
     STROK1 0988     20/48   20#51  
     STROK2 0982     20/44   20#47  
     STROK4 0A0E     21/59   21#61  
     STROPN 097A     20/40   20#43  
     STRZLN 0A50     22#34   22/36  
     STSTLP 094C     20#14   20/17  
     STVCTL 0A27     22#16   22/21  
   n SUBTMP 029E      7#61  
     SUCCES 0001      3#11   15/ 6   16/38   17/21   19/23   19/40   23/22  
     SUPRIN 0907     19/35   19#38  
   n SWPFLG 007B      5#48  
                  ATARI CAMAC Assembler Ver  1.0A  Page  42
                                                       D1:R850AMAC.       
                                                    

     SYSBUF 09B0     20/56   20/60   21#18  
   n SYSVBV E45F      2# 5  
   n TABMAP 02A3      8# 9  
   n TEMP   023E      6#60  
   n TEMP1  0312      9#35  
   n TEMP2  0314      9#36  
   n TEMP3  0315      9#37  
   n TIMER1 030C      9#30  
   n TIMER2 0310      9#33  
   n TIMFLG 0317      9#39  
   n TIMOUT 008A      3#23  
   n TINDEX 0293      7#56  
   n TMPCHR 0050      5#17  
   n TMPCOL 02B9      8#14  
   n TMPLBT 02A1      8# 7  
   n TMPROW 02B8      8#13  
   n TMPX1  029C      7#59  
     TOBUF  0DA9     21/ 9   21/13   21/27   21/30   28/25   28/26   28/29   28/30   28/54   28/56   30#58  
     TONOLF 07B1     16/20   16#28  
   n TRAMSZ 0006      3#48  
     TRANSL 0A9D     23#18   30/ 8  
   n TRIG0  D010     13#34  
   n TRIG1  D011     13#35  
   n TRIG2  D012     13#36  
   n TRIG3  D013     13#37  
   n TRNCMD 0026     14#26  
   n TRNRCD 0089      3#22  
   n TSTAT  0319      9#41  
   n TSTDAT 0007      3#49  
     TWOSTP 0850     17/46   17#49  
   n TXTCOL 0291      7#55  
   n TXTMSC 0294      7#57  
   n TXTOLD 0296      7#58  
   n TXTROW 0290      7#54  
   n UNLOCK 0024      2#38  
   n USAREA 0480     10#24  
   n VBREAK 0206      6#20  
   n VCOUNT D40B     13#49  
   n VCTABL E480      1#15  
   n VDELAY D01C     13#14  
   n VDSLST 0200      6#17  
   n VECTBL E400      1#14  
     VIMIRQ 0216      6#28   15/25   15/27   22/23   22/26   22/27   22/30  
   n VINTER 0204      6#19  
   n VKEYBD 0208      6#21  
   n VPRCED 0202      6#18  
   n VSCROL D405     13#45  
     VSERIN 020A      6#22   15/30   22/16   22/19  
   n VSEROC 020E      6#24  
   n VSEROR 020C      6#23  
   n VTIMR1 0210      6#25  
   n VTIMR2 0212      6#26  
   n VTIMR4 0214      6#27  
   n VVBLKD 0224      6#35  
   n VVBLKI 0222      6#34  
     WARMST 0008      3#52   24/11  
   n WARMSV E474      2#12  
                  ATARI CAMAC Assembler Ver  1.0A  Page  43
                                                       D1:R850AMAC.       
                                                    

   n WMODE  0289      7#46  
     WRITE  0057     14#21   15/43   17/28  
     WRITOK 0785     15/56   15#60  
     WRMXIT 0AFB     24/12   24#14  
     WRONLY 0083      3#16   18/ 7  
   n WSYNC  D40A     13#48  
     X32M1  0C02     17/ 8   17/34   21/18   25/48   26/16   27#48  
     XIOERR 096F     20/25   20/28   20#35  
   n XITVBV E462      2# 6  
   n XMTDON 003A      4#49  
     ZERBIT 0BD8     26/43   26#45  
   n ZIOCB  0020      4#19  
   n ZTEMP1 00F5     11#37  
   n ZTEMP3 00F9     11#39  
   n ZTEMP4 00F7     11#38  
›